ARM GAS  C:\Users\karthik\AppData\Local\Temp\ccp4C5ye.s 			page 1


   1              		.syntax unified
   2              		.cpu cortex-m3
   3              		.fpu softvfp
   4              		.eabi_attribute 20, 1
   5              		.eabi_attribute 21, 1
   6              		.eabi_attribute 23, 3
   7              		.eabi_attribute 24, 1
   8              		.eabi_attribute 25, 1
   9              		.eabi_attribute 26, 1
  10              		.eabi_attribute 30, 1
  11              		.eabi_attribute 34, 1
  12              		.eabi_attribute 18, 4
  13              		.thumb
  14              		.syntax unified
  15              		.file	"main.c"
  16              		.text
  17              	.Ltext0:
  18              		.cfi_sections	.debug_frame
  19              		.section	.text.led_task,"ax",%progbits
  20              		.align	2
  21              		.global	led_task
  22              		.thumb
  23              		.thumb_func
  24              		.type	led_task, %function
  25              	led_task:
  26              	.LFB69:
  27              		.file 1 "main.c"
   1:main.c        **** #include <stdio.h>
   2:main.c        **** #include <stdlib.h>
   3:main.c        **** #include <math.h>
   4:main.c        **** #include <string.h>
   5:main.c        **** #include "project.h"
   6:main.c        **** #include "FreeRTOS.h"
   7:main.c        **** #include "task.h"
   8:main.c        **** #include "timers.h"
   9:main.c        **** #include "queue.h"
  10:main.c        **** #include "semphr.h"
  11:main.c        **** 
  12:main.c        **** extern void FreeRTOS_Start();
  13:main.c        **** 
  14:main.c        **** void led_task(void *ptr){
  28              		.loc 1 14 0
  29              		.cfi_startproc
  30              		@ args = 0, pretend = 0, frame = 0
  31              		@ frame_needed = 0, uses_anonymous_args = 0
  32              	.LVL0:
  33 0000 10B5     		push	{r4, lr}
  34              		.cfi_def_cfa_offset 8
  35              		.cfi_offset 4, -8
  36              		.cfi_offset 14, -4
  37              	.LVL1:
  38              	.L4:
  39              	.LBB2:
  15:main.c        ****     while(1){
  16:main.c        ****         uint8_t led_state = !led_Read();  // Toggle state
  40              		.loc 1 16 0
  41 0002 FFF7FEFF 		bl	led_Read
ARM GAS  C:\Users\karthik\AppData\Local\Temp\ccp4C5ye.s 			page 2


  42              	.LVL2:
  43 0006 0446     		mov	r4, r0
  44              	.LVL3:
  17:main.c        ****         led_Write(led_state);             // Write to LED pin
  45              		.loc 1 17 0
  46 0008 B0FA80F0 		clz	r0, r0
  47              	.LVL4:
  48 000c 4009     		lsrs	r0, r0, #5
  49 000e FFF7FEFF 		bl	led_Write
  50              	.LVL5:
  18:main.c        ****         if(led_state)
  51              		.loc 1 18 0
  52 0012 1CB9     		cbnz	r4, .L2
  19:main.c        ****             UART_PutString("LED ON\r\n");
  53              		.loc 1 19 0
  54 0014 0548     		ldr	r0, .L6
  55 0016 FFF7FEFF 		bl	UART_PutString
  56              	.LVL6:
  57 001a 02E0     		b	.L3
  58              	.L2:
  20:main.c        ****         else
  21:main.c        ****             UART_PutString("LED OFF\r\n");
  59              		.loc 1 21 0
  60 001c 0448     		ldr	r0, .L6+4
  61 001e FFF7FEFF 		bl	UART_PutString
  62              	.LVL7:
  63              	.L3:
  22:main.c        ****         vTaskDelay(1000); // Delay 1 second (1000 ticks)
  64              		.loc 1 22 0
  65 0022 4FF47A70 		mov	r0, #1000
  66 0026 FFF7FEFF 		bl	vTaskDelay
  67              	.LVL8:
  68              	.LBE2:
  23:main.c        ****     }
  69              		.loc 1 23 0
  70 002a EAE7     		b	.L4
  71              	.L7:
  72              		.align	2
  73              	.L6:
  74 002c 00000000 		.word	.LC0
  75 0030 0C000000 		.word	.LC1
  76              		.cfi_endproc
  77              	.LFE69:
  78              		.size	led_task, .-led_task
  79              		.section	.text.main,"ax",%progbits
  80              		.align	2
  81              		.global	main
  82              		.thumb
  83              		.thumb_func
  84              		.type	main, %function
  85              	main:
  86              	.LFB70:
  24:main.c        **** }
  25:main.c        **** 
  26:main.c        **** int main(void)
  27:main.c        **** {
  87              		.loc 1 27 0
ARM GAS  C:\Users\karthik\AppData\Local\Temp\ccp4C5ye.s 			page 3


  88              		.cfi_startproc
  89              		@ Volatile: function does not return.
  90              		@ args = 0, pretend = 0, frame = 0
  91              		@ frame_needed = 0, uses_anonymous_args = 0
  92 0000 00B5     		push	{lr}
  93              		.cfi_def_cfa_offset 4
  94              		.cfi_offset 14, -4
  95 0002 83B0     		sub	sp, sp, #12
  96              		.cfi_def_cfa_offset 16
  28:main.c        ****     CyGlobalIntEnable;
  97              		.loc 1 28 0
  98              		.syntax unified
  99              	@ 28 "main.c" 1
 100 0004 62B6     		CPSIE   i
 101              	@ 0 "" 2
  29:main.c        ****     FreeRTOS_Start();
 102              		.loc 1 29 0
 103              		.thumb
 104              		.syntax unified
 105 0006 FFF7FEFF 		bl	FreeRTOS_Start
 106              	.LVL9:
  30:main.c        ****     UART_Start();
 107              		.loc 1 30 0
 108 000a FFF7FEFF 		bl	UART_Start
 109              	.LVL10:
  31:main.c        ****     UART_ClearTxBuffer();
 110              		.loc 1 31 0
 111 000e FFF7FEFF 		bl	UART_ClearTxBuffer
 112              	.LVL11:
  32:main.c        ****     xTaskCreate(led_task, "LED_UART_Task", 200, NULL, 5, NULL);
 113              		.loc 1 32 0
 114 0012 0023     		movs	r3, #0
 115 0014 0193     		str	r3, [sp, #4]
 116 0016 0522     		movs	r2, #5
 117 0018 0092     		str	r2, [sp]
 118 001a C822     		movs	r2, #200
 119 001c 0349     		ldr	r1, .L11
 120 001e 0448     		ldr	r0, .L11+4
 121 0020 FFF7FEFF 		bl	xTaskCreate
 122              	.LVL12:
  33:main.c        ****     vTaskStartScheduler();
 123              		.loc 1 33 0
 124 0024 FFF7FEFF 		bl	vTaskStartScheduler
 125              	.LVL13:
 126              	.L9:
 127 0028 FEE7     		b	.L9
 128              	.L12:
 129 002a 00BF     		.align	2
 130              	.L11:
 131 002c 18000000 		.word	.LC2
 132 0030 00000000 		.word	led_task
 133              		.cfi_endproc
 134              	.LFE70:
 135              		.size	main, .-main
 136              		.section	.rodata.str1.4,"aMS",%progbits,1
 137              		.align	2
 138              	.LC0:
ARM GAS  C:\Users\karthik\AppData\Local\Temp\ccp4C5ye.s 			page 4


 139 0000 4C454420 		.ascii	"LED ON\015\012\000"
 139      4F4E0D0A 
 139      00
 140 0009 000000   		.space	3
 141              	.LC1:
 142 000c 4C454420 		.ascii	"LED OFF\015\012\000"
 142      4F46460D 
 142      0A00
 143 0016 0000     		.space	2
 144              	.LC2:
 145 0018 4C45445F 		.ascii	"LED_UART_Task\000"
 145      55415254 
 145      5F546173 
 145      6B00
 146              		.text
 147              	.Letext0:
 148              		.file 2 "c:\\program files (x86)\\cypress\\psoc creator\\4.4\\psoc creator\\import\\gnu\\arm\\5.4.
 149              		.file 3 "c:\\program files (x86)\\cypress\\psoc creator\\4.4\\psoc creator\\import\\gnu\\arm\\5.4.
 150              		.file 4 "Generated_Source\\PSoC5/led.h"
 151              		.file 5 "Generated_Source\\PSoC5/UART.h"
 152              		.file 6 "..\\FreeRTOS\\Source\\include/task.h"
 153              		.file 7 "Generated_Source\\PSoC5/core_cm3.h"