ARM GAS  C:\Users\karthik\AppData\Local\Temp\ccOcPlaW.s 			page 1


   1              		.syntax unified
   2              		.cpu cortex-m3
   3              		.fpu softvfp
   4              		.eabi_attribute 20, 1
   5              		.eabi_attribute 21, 1
   6              		.eabi_attribute 23, 3
   7              		.eabi_attribute 24, 1
   8              		.eabi_attribute 25, 1
   9              		.eabi_attribute 26, 1
  10              		.eabi_attribute 30, 1
  11              		.eabi_attribute 34, 1
  12              		.eabi_attribute 18, 4
  13              		.thumb
  14              		.syntax unified
  15              		.file	"main.c"
  16              		.text
  17              	.Ltext0:
  18              		.cfi_sections	.debug_frame
  19              		.section	.text.uart_print,"ax",%progbits
  20              		.align	2
  21              		.global	uart_print
  22              		.thumb
  23              		.thumb_func
  24              		.type	uart_print, %function
  25              	uart_print:
  26              	.LFB69:
  27              		.file 1 "main.c"
   1:main.c        **** #include <stdio.h>
   2:main.c        **** #include <stdlib.h>
   3:main.c        **** #include <string.h>
   4:main.c        **** #include "project.h"
   5:main.c        **** #include "FreeRTOS.h"
   6:main.c        **** #include "task.h"
   7:main.c        **** #include "queue.h"
   8:main.c        **** #include "semphr.h"
   9:main.c        **** 
  10:main.c        **** extern void FreeRTOS_Start();
  11:main.c        **** 
  12:main.c        **** QueueHandle_t led_mailbox;
  13:main.c        **** SemaphoreHandle_t uart_mutex;
  14:main.c        **** 
  15:main.c        **** typedef enum {
  16:main.c        ****     LED_ON,
  17:main.c        ****     LED_OFF,
  18:main.c        ****     LED_TOGGLE,
  19:main.c        ****     LED_STATUS,
  20:main.c        ****     LED_BLINK,
  21:main.c        ****     LED_SLEEP,
  22:main.c        ****     LED_HELP,
  23:main.c        ****     LED_INVALID
  24:main.c        **** } led_cmd_t;
  25:main.c        **** 
  26:main.c        **** void uart_print(const char *msg) {
  28              		.loc 1 26 0
  29              		.cfi_startproc
  30              		@ args = 0, pretend = 0, frame = 0
  31              		@ frame_needed = 0, uses_anonymous_args = 0
ARM GAS  C:\Users\karthik\AppData\Local\Temp\ccOcPlaW.s 			page 2


  32              	.LVL0:
  33 0000 10B5     		push	{r4, lr}
  34              		.cfi_def_cfa_offset 8
  35              		.cfi_offset 4, -8
  36              		.cfi_offset 14, -4
  37 0002 0446     		mov	r4, r0
  27:main.c        ****     if (xSemaphoreTake(uart_mutex, portMAX_DELAY)) {
  38              		.loc 1 27 0
  39 0004 4FF0FF31 		mov	r1, #-1
  40 0008 074B     		ldr	r3, .L4
  41 000a 1868     		ldr	r0, [r3]
  42              	.LVL1:
  43 000c FFF7FEFF 		bl	xQueueSemaphoreTake
  44              	.LVL2:
  45 0010 48B1     		cbz	r0, .L1
  28:main.c        ****         UART_PutString(msg);
  46              		.loc 1 28 0
  47 0012 2046     		mov	r0, r4
  48 0014 FFF7FEFF 		bl	UART_PutString
  49              	.LVL3:
  29:main.c        ****         xSemaphoreGive(uart_mutex);
  50              		.loc 1 29 0
  51 0018 0023     		movs	r3, #0
  52 001a 1A46     		mov	r2, r3
  53 001c 1946     		mov	r1, r3
  54 001e 0248     		ldr	r0, .L4
  55 0020 0068     		ldr	r0, [r0]
  56 0022 FFF7FEFF 		bl	xQueueGenericSend
  57              	.LVL4:
  58              	.L1:
  59 0026 10BD     		pop	{r4, pc}
  60              	.LVL5:
  61              	.L5:
  62              		.align	2
  63              	.L4:
  64 0028 00000000 		.word	uart_mutex
  65              		.cfi_endproc
  66              	.LFE69:
  67              		.size	uart_print, .-uart_print
  68              		.section	.text.uart_putchar,"ax",%progbits
  69              		.align	2
  70              		.global	uart_putchar
  71              		.thumb
  72              		.thumb_func
  73              		.type	uart_putchar, %function
  74              	uart_putchar:
  75              	.LFB70:
  30:main.c        ****     }
  31:main.c        **** }
  32:main.c        **** 
  33:main.c        **** void uart_putchar(char ch) {
  76              		.loc 1 33 0
  77              		.cfi_startproc
  78              		@ args = 0, pretend = 0, frame = 0
  79              		@ frame_needed = 0, uses_anonymous_args = 0
  80              	.LVL6:
  81 0000 10B5     		push	{r4, lr}
ARM GAS  C:\Users\karthik\AppData\Local\Temp\ccOcPlaW.s 			page 3


  82              		.cfi_def_cfa_offset 8
  83              		.cfi_offset 4, -8
  84              		.cfi_offset 14, -4
  85 0002 0446     		mov	r4, r0
  34:main.c        ****     if (xSemaphoreTake(uart_mutex, portMAX_DELAY)) {
  86              		.loc 1 34 0
  87 0004 4FF0FF31 		mov	r1, #-1
  88 0008 074B     		ldr	r3, .L9
  89 000a 1868     		ldr	r0, [r3]
  90              	.LVL7:
  91 000c FFF7FEFF 		bl	xQueueSemaphoreTake
  92              	.LVL8:
  93 0010 48B1     		cbz	r0, .L6
  35:main.c        ****         UART_PutChar(ch);
  94              		.loc 1 35 0
  95 0012 2046     		mov	r0, r4
  96 0014 FFF7FEFF 		bl	UART_PutChar
  97              	.LVL9:
  36:main.c        ****         xSemaphoreGive(uart_mutex);
  98              		.loc 1 36 0
  99 0018 0023     		movs	r3, #0
 100 001a 1A46     		mov	r2, r3
 101 001c 1946     		mov	r1, r3
 102 001e 0248     		ldr	r0, .L9
 103 0020 0068     		ldr	r0, [r0]
 104 0022 FFF7FEFF 		bl	xQueueGenericSend
 105              	.LVL10:
 106              	.L6:
 107 0026 10BD     		pop	{r4, pc}
 108              	.L10:
 109              		.align	2
 110              	.L9:
 111 0028 00000000 		.word	uart_mutex
 112              		.cfi_endproc
 113              	.LFE70:
 114              		.size	uart_putchar, .-uart_putchar
 115              		.section	.text.print_help,"ax",%progbits
 116              		.align	2
 117              		.global	print_help
 118              		.thumb
 119              		.thumb_func
 120              		.type	print_help, %function
 121              	print_help:
 122              	.LFB71:
  37:main.c        ****     }
  38:main.c        **** }
  39:main.c        **** 
  40:main.c        **** void print_help() {
 123              		.loc 1 40 0
 124              		.cfi_startproc
 125              		@ args = 0, pretend = 0, frame = 0
 126              		@ frame_needed = 0, uses_anonymous_args = 0
 127 0000 08B5     		push	{r3, lr}
 128              		.cfi_def_cfa_offset 8
 129              		.cfi_offset 3, -8
 130              		.cfi_offset 14, -4
  41:main.c        ****     uart_print(
ARM GAS  C:\Users\karthik\AppData\Local\Temp\ccOcPlaW.s 			page 4


 131              		.loc 1 41 0
 132 0002 0248     		ldr	r0, .L13
 133 0004 FFF7FEFF 		bl	uart_print
 134              	.LVL11:
 135 0008 08BD     		pop	{r3, pc}
 136              	.L14:
 137 000a 00BF     		.align	2
 138              	.L13:
 139 000c 00000000 		.word	.LC0
 140              		.cfi_endproc
 141              	.LFE71:
 142              		.size	print_help, .-print_help
 143              		.section	.text.led_task,"ax",%progbits
 144              		.align	2
 145              		.global	led_task
 146              		.thumb
 147              		.thumb_func
 148              		.type	led_task, %function
 149              	led_task:
 150              	.LFB74:
  42:main.c        ****         "\r\nAvailable Commands:\r\n"
  43:main.c        ****         "on     - Turn LED ON\r\n"
  44:main.c        ****         "off    - Turn LED OFF\r\n"
  45:main.c        ****         "toggle - Toggle LED state\r\n"
  46:main.c        ****         "status - Show LED state\r\n"
  47:main.c        ****         "blink  - Blink LED 3 times\r\n"
  48:main.c        ****         "sleep  - Pause for 5 seconds\r\n"
  49:main.c        ****         "help   - Show this help message\r\n"
  50:main.c        ****         "> "
  51:main.c        ****     );
  52:main.c        **** }
  53:main.c        **** 
  54:main.c        **** led_cmd_t parse_command(const char *input) {
  55:main.c        ****     if (strcasecmp(input, "on") == 0) return LED_ON;
  56:main.c        ****     if (strcasecmp(input, "off") == 0) return LED_OFF;
  57:main.c        ****     if (strcasecmp(input, "toggle") == 0) return LED_TOGGLE;
  58:main.c        ****     if (strcasecmp(input, "status") == 0) return LED_STATUS;
  59:main.c        ****     if (strcasecmp(input, "blink") == 0) return LED_BLINK;
  60:main.c        ****     if (strcasecmp(input, "sleep") == 0) return LED_SLEEP;
  61:main.c        ****     if (strcasecmp(input, "help") == 0) return LED_HELP;
  62:main.c        ****     return LED_INVALID;
  63:main.c        **** }
  64:main.c        **** 
  65:main.c        **** void uart_input_task(void *ptr) {
  66:main.c        ****     char buffer[32];
  67:main.c        ****     uint8_t index = 0;
  68:main.c        **** 
  69:main.c        ****     while (1) {
  70:main.c        ****         char ch = UART_GetChar();
  71:main.c        ****         if (ch != 0u && ch != 0xFF) {
  72:main.c        ****             if (ch == '\r' || ch == '\n') {
  73:main.c        ****                 buffer[index] = '\0';
  74:main.c        ****                 index = 0;
  75:main.c        **** 
  76:main.c        ****                 led_cmd_t cmd = parse_command(buffer);
  77:main.c        ****                 if (cmd != LED_INVALID) {
  78:main.c        ****                     xQueueOverwrite(led_mailbox, &cmd);
ARM GAS  C:\Users\karthik\AppData\Local\Temp\ccOcPlaW.s 			page 5


  79:main.c        ****                     uart_print("\r\nCommand received\r\n");
  80:main.c        ****                 } else {
  81:main.c        ****                     uart_print("\r\nInvalid command. Type 'help'\r\n");
  82:main.c        ****                 }
  83:main.c        ****                 uart_print("> ");
  84:main.c        ****             } else if (index < sizeof(buffer) - 1) {
  85:main.c        ****                 buffer[index++] = ch;
  86:main.c        ****                 uart_putchar(ch);
  87:main.c        ****             }
  88:main.c        ****         }
  89:main.c        **** 
  90:main.c        ****         vTaskDelay(10);
  91:main.c        ****     }
  92:main.c        **** }
  93:main.c        **** 
  94:main.c        **** void led_task(void *ptr) {
 151              		.loc 1 94 0
 152              		.cfi_startproc
 153              		@ args = 0, pretend = 0, frame = 8
 154              		@ frame_needed = 0, uses_anonymous_args = 0
 155              	.LVL12:
 156 0000 10B5     		push	{r4, lr}
 157              		.cfi_def_cfa_offset 8
 158              		.cfi_offset 4, -8
 159              		.cfi_offset 14, -4
 160 0002 82B0     		sub	sp, sp, #8
 161              		.cfi_def_cfa_offset 16
 162              	.LVL13:
 163              	.L16:
  95:main.c        ****     led_cmd_t cmd;
  96:main.c        **** 
  97:main.c        ****     while (1) {
  98:main.c        ****         if (xQueueReceive(led_mailbox, &cmd, portMAX_DELAY) == pdTRUE) {
 164              		.loc 1 98 0
 165 0004 4FF0FF32 		mov	r2, #-1
 166 0008 0DF10701 		add	r1, sp, #7
 167 000c 2D4B     		ldr	r3, .L33
 168 000e 1868     		ldr	r0, [r3]
 169 0010 FFF7FEFF 		bl	xQueueReceive
 170              	.LVL14:
 171 0014 0128     		cmp	r0, #1
 172 0016 F5D1     		bne	.L16
  99:main.c        ****             switch (cmd) {
 173              		.loc 1 99 0
 174 0018 9DF80730 		ldrb	r3, [sp, #7]	@ zero_extendqisi2
 175 001c 062B     		cmp	r3, #6
 176 001e F1D8     		bhi	.L16
 177 0020 DFE803F0 		tbb	[pc, r3]
 178              	.L19:
 179 0024 04       		.byte	(.L18-.L19)/2
 180 0025 0B       		.byte	(.L20-.L19)/2
 181 0026 12       		.byte	(.L21-.L19)/2
 182 0027 22       		.byte	(.L22-.L19)/2
 183 0028 3B       		.byte	(.L29-.L19)/2
 184 0029 42       		.byte	(.L24-.L19)/2
 185 002a 4D       		.byte	(.L25-.L19)/2
 186 002b 00       		.p2align 1
ARM GAS  C:\Users\karthik\AppData\Local\Temp\ccOcPlaW.s 			page 6


 187              	.L18:
 100:main.c        ****                 case LED_ON:
 101:main.c        ****                     Pin_LED_Write(1);
 188              		.loc 1 101 0
 189 002c 0120     		movs	r0, #1
 190 002e FFF7FEFF 		bl	Pin_LED_Write
 191              	.LVL15:
 102:main.c        ****                     uart_print("LED ON\r\n");
 192              		.loc 1 102 0
 193 0032 2548     		ldr	r0, .L33+4
 194 0034 FFF7FEFF 		bl	uart_print
 195              	.LVL16:
 103:main.c        ****                     break;
 196              		.loc 1 103 0
 197 0038 E4E7     		b	.L16
 198              	.L20:
 104:main.c        ****                 case LED_OFF:
 105:main.c        ****                     Pin_LED_Write(0);
 199              		.loc 1 105 0
 200 003a 0020     		movs	r0, #0
 201 003c FFF7FEFF 		bl	Pin_LED_Write
 202              	.LVL17:
 106:main.c        ****                     uart_print("LED OFF\r\n");
 203              		.loc 1 106 0
 204 0040 2248     		ldr	r0, .L33+8
 205 0042 FFF7FEFF 		bl	uart_print
 206              	.LVL18:
 107:main.c        ****                     break;
 207              		.loc 1 107 0
 208 0046 DDE7     		b	.L16
 209              	.L21:
 108:main.c        ****                 case LED_TOGGLE:
 109:main.c        ****                     Pin_LED_Write(!Pin_LED_Read());
 210              		.loc 1 109 0
 211 0048 FFF7FEFF 		bl	Pin_LED_Read
 212              	.LVL19:
 213 004c B0FA80F0 		clz	r0, r0
 214 0050 4009     		lsrs	r0, r0, #5
 215 0052 FFF7FEFF 		bl	Pin_LED_Write
 216              	.LVL20:
 110:main.c        ****                     uart_print(Pin_LED_Read() ? "LED ON\r\n" : "LED OFF\r\n");
 217              		.loc 1 110 0
 218 0056 FFF7FEFF 		bl	Pin_LED_Read
 219              	.LVL21:
 220 005a 08B1     		cbz	r0, .L30
 221 005c 1A48     		ldr	r0, .L33+4
 222 005e 00E0     		b	.L26
 223              	.L30:
 224 0060 1A48     		ldr	r0, .L33+8
 225              	.L26:
 226              		.loc 1 110 0 is_stmt 0 discriminator 4
 227 0062 FFF7FEFF 		bl	uart_print
 228              	.LVL22:
 111:main.c        ****                     break;
 229              		.loc 1 111 0 is_stmt 1 discriminator 4
 230 0066 CDE7     		b	.L16
 231              	.L22:
ARM GAS  C:\Users\karthik\AppData\Local\Temp\ccOcPlaW.s 			page 7


 112:main.c        ****                 case LED_STATUS:
 113:main.c        ****                     uart_print(Pin_LED_Read() ? "LED is currently ON\r\n" : "LED is currently OFF\r
 232              		.loc 1 113 0
 233 0068 FFF7FEFF 		bl	Pin_LED_Read
 234              	.LVL23:
 235 006c 08B1     		cbz	r0, .L31
 236 006e 1848     		ldr	r0, .L33+12
 237 0070 00E0     		b	.L27
 238              	.L31:
 239 0072 1848     		ldr	r0, .L33+16
 240              	.L27:
 241              		.loc 1 113 0 is_stmt 0 discriminator 4
 242 0074 FFF7FEFF 		bl	uart_print
 243              	.LVL24:
 114:main.c        ****                     break;
 244              		.loc 1 114 0 is_stmt 1 discriminator 4
 245 0078 C4E7     		b	.L16
 246              	.LVL25:
 247              	.L28:
 248              	.LBB2:
 115:main.c        ****                 case LED_BLINK:
 116:main.c        ****                     for (int i = 0; i < 3; ++i) {
 117:main.c        ****                         Pin_LED_Write(1);
 249              		.loc 1 117 0 discriminator 3
 250 007a 0120     		movs	r0, #1
 251 007c FFF7FEFF 		bl	Pin_LED_Write
 252              	.LVL26:
 118:main.c        ****                         vTaskDelay(pdMS_TO_TICKS(300));
 253              		.loc 1 118 0 discriminator 3
 254 0080 4FF49670 		mov	r0, #300
 255 0084 FFF7FEFF 		bl	vTaskDelay
 256              	.LVL27:
 119:main.c        ****                         Pin_LED_Write(0);
 257              		.loc 1 119 0 discriminator 3
 258 0088 0020     		movs	r0, #0
 259 008a FFF7FEFF 		bl	Pin_LED_Write
 260              	.LVL28:
 120:main.c        ****                         vTaskDelay(pdMS_TO_TICKS(300));
 261              		.loc 1 120 0 discriminator 3
 262 008e 4FF49670 		mov	r0, #300
 263 0092 FFF7FEFF 		bl	vTaskDelay
 264              	.LVL29:
 116:main.c        ****                         Pin_LED_Write(1);
 265              		.loc 1 116 0 discriminator 3
 266 0096 0134     		adds	r4, r4, #1
 267              	.LVL30:
 268 0098 00E0     		b	.L23
 269              	.LVL31:
 270              	.L29:
 271              	.LBE2:
  99:main.c        ****                 case LED_ON:
 272              		.loc 1 99 0
 273 009a 0024     		movs	r4, #0
 274              	.L23:
 275              	.LVL32:
 276              	.LBB3:
 116:main.c        ****                         Pin_LED_Write(1);
ARM GAS  C:\Users\karthik\AppData\Local\Temp\ccOcPlaW.s 			page 8


 277              		.loc 1 116 0 discriminator 1
 278 009c 022C     		cmp	r4, #2
 279 009e ECDD     		ble	.L28
 280              	.LBE3:
 121:main.c        ****                     }
 122:main.c        ****                     uart_print("Blinked 3 times\r\n");
 281              		.loc 1 122 0
 282 00a0 0D48     		ldr	r0, .L33+20
 283 00a2 FFF7FEFF 		bl	uart_print
 284              	.LVL33:
 123:main.c        ****                     break;
 285              		.loc 1 123 0
 286 00a6 ADE7     		b	.L16
 287              	.LVL34:
 288              	.L24:
 124:main.c        ****                 case LED_SLEEP:
 125:main.c        ****                     uart_print("Sleeping for 5 seconds...\r\n");
 289              		.loc 1 125 0
 290 00a8 0C48     		ldr	r0, .L33+24
 291 00aa FFF7FEFF 		bl	uart_print
 292              	.LVL35:
 126:main.c        ****                     vTaskDelay(pdMS_TO_TICKS(5000));
 293              		.loc 1 126 0
 294 00ae 41F28830 		movw	r0, #5000
 295 00b2 FFF7FEFF 		bl	vTaskDelay
 296              	.LVL36:
 127:main.c        ****                     uart_print("Woke up\r\n");
 297              		.loc 1 127 0
 298 00b6 0A48     		ldr	r0, .L33+28
 299 00b8 FFF7FEFF 		bl	uart_print
 300              	.LVL37:
 128:main.c        ****                     break;
 301              		.loc 1 128 0
 302 00bc A2E7     		b	.L16
 303              	.L25:
 129:main.c        ****                 case LED_HELP:
 130:main.c        ****                     print_help();
 304              		.loc 1 130 0
 305 00be FFF7FEFF 		bl	print_help
 306              	.LVL38:
 131:main.c        ****                     break;
 307              		.loc 1 131 0
 308 00c2 9FE7     		b	.L16
 309              	.L34:
 310              		.align	2
 311              	.L33:
 312 00c4 00000000 		.word	led_mailbox
 313 00c8 D8000000 		.word	.LC1
 314 00cc E4000000 		.word	.LC2
 315 00d0 F0000000 		.word	.LC3
 316 00d4 08010000 		.word	.LC4
 317 00d8 20010000 		.word	.LC5
 318 00dc 34010000 		.word	.LC6
 319 00e0 50010000 		.word	.LC7
 320              		.cfi_endproc
 321              	.LFE74:
 322              		.size	led_task, .-led_task
ARM GAS  C:\Users\karthik\AppData\Local\Temp\ccOcPlaW.s 			page 9


 323              		.section	.text.parse_command,"ax",%progbits
 324              		.align	2
 325              		.global	parse_command
 326              		.thumb
 327              		.thumb_func
 328              		.type	parse_command, %function
 329              	parse_command:
 330              	.LFB72:
  54:main.c        ****     if (strcasecmp(input, "on") == 0) return LED_ON;
 331              		.loc 1 54 0
 332              		.cfi_startproc
 333              		@ args = 0, pretend = 0, frame = 0
 334              		@ frame_needed = 0, uses_anonymous_args = 0
 335              	.LVL39:
 336 0000 10B5     		push	{r4, lr}
 337              		.cfi_def_cfa_offset 8
 338              		.cfi_offset 4, -8
 339              		.cfi_offset 14, -4
 340 0002 0446     		mov	r4, r0
  55:main.c        ****     if (strcasecmp(input, "off") == 0) return LED_OFF;
 341              		.loc 1 55 0
 342 0004 1849     		ldr	r1, .L45
 343 0006 FFF7FEFF 		bl	strcasecmp
 344              	.LVL40:
 345 000a F8B1     		cbz	r0, .L37
  56:main.c        ****     if (strcasecmp(input, "toggle") == 0) return LED_TOGGLE;
 346              		.loc 1 56 0
 347 000c 1749     		ldr	r1, .L45+4
 348 000e 2046     		mov	r0, r4
 349 0010 FFF7FEFF 		bl	strcasecmp
 350              	.LVL41:
 351 0014 E0B1     		cbz	r0, .L38
  57:main.c        ****     if (strcasecmp(input, "status") == 0) return LED_STATUS;
 352              		.loc 1 57 0
 353 0016 1649     		ldr	r1, .L45+8
 354 0018 2046     		mov	r0, r4
 355 001a FFF7FEFF 		bl	strcasecmp
 356              	.LVL42:
 357 001e C8B1     		cbz	r0, .L39
  58:main.c        ****     if (strcasecmp(input, "blink") == 0) return LED_BLINK;
 358              		.loc 1 58 0
 359 0020 1449     		ldr	r1, .L45+12
 360 0022 2046     		mov	r0, r4
 361 0024 FFF7FEFF 		bl	strcasecmp
 362              	.LVL43:
 363 0028 B0B1     		cbz	r0, .L40
  59:main.c        ****     if (strcasecmp(input, "sleep") == 0) return LED_SLEEP;
 364              		.loc 1 59 0
 365 002a 1349     		ldr	r1, .L45+16
 366 002c 2046     		mov	r0, r4
 367 002e FFF7FEFF 		bl	strcasecmp
 368              	.LVL44:
 369 0032 98B1     		cbz	r0, .L41
  60:main.c        ****     if (strcasecmp(input, "help") == 0) return LED_HELP;
 370              		.loc 1 60 0
 371 0034 1149     		ldr	r1, .L45+20
 372 0036 2046     		mov	r0, r4
ARM GAS  C:\Users\karthik\AppData\Local\Temp\ccOcPlaW.s 			page 10


 373 0038 FFF7FEFF 		bl	strcasecmp
 374              	.LVL45:
 375 003c 80B1     		cbz	r0, .L42
  61:main.c        ****     return LED_INVALID;
 376              		.loc 1 61 0
 377 003e 1049     		ldr	r1, .L45+24
 378 0040 2046     		mov	r0, r4
 379 0042 FFF7FEFF 		bl	strcasecmp
 380              	.LVL46:
 381 0046 68B9     		cbnz	r0, .L43
 382 0048 0620     		movs	r0, #6
 383 004a 10BD     		pop	{r4, pc}
 384              	.LVL47:
 385              	.L37:
  55:main.c        ****     if (strcasecmp(input, "off") == 0) return LED_OFF;
 386              		.loc 1 55 0
 387 004c 0020     		movs	r0, #0
 388 004e 10BD     		pop	{r4, pc}
 389              	.LVL48:
 390              	.L38:
  56:main.c        ****     if (strcasecmp(input, "toggle") == 0) return LED_TOGGLE;
 391              		.loc 1 56 0
 392 0050 0120     		movs	r0, #1
 393 0052 10BD     		pop	{r4, pc}
 394              	.LVL49:
 395              	.L39:
  57:main.c        ****     if (strcasecmp(input, "status") == 0) return LED_STATUS;
 396              		.loc 1 57 0
 397 0054 0220     		movs	r0, #2
 398 0056 10BD     		pop	{r4, pc}
 399              	.LVL50:
 400              	.L40:
  58:main.c        ****     if (strcasecmp(input, "blink") == 0) return LED_BLINK;
 401              		.loc 1 58 0
 402 0058 0320     		movs	r0, #3
 403 005a 10BD     		pop	{r4, pc}
 404              	.LVL51:
 405              	.L41:
  59:main.c        ****     if (strcasecmp(input, "sleep") == 0) return LED_SLEEP;
 406              		.loc 1 59 0
 407 005c 0420     		movs	r0, #4
 408 005e 10BD     		pop	{r4, pc}
 409              	.LVL52:
 410              	.L42:
  60:main.c        ****     if (strcasecmp(input, "help") == 0) return LED_HELP;
 411              		.loc 1 60 0
 412 0060 0520     		movs	r0, #5
 413 0062 10BD     		pop	{r4, pc}
 414              	.LVL53:
 415              	.L43:
  62:main.c        **** }
 416              		.loc 1 62 0
 417 0064 0720     		movs	r0, #7
  63:main.c        **** 
 418              		.loc 1 63 0
 419 0066 10BD     		pop	{r4, pc}
 420              	.LVL54:
ARM GAS  C:\Users\karthik\AppData\Local\Temp\ccOcPlaW.s 			page 11


 421              	.L46:
 422              		.align	2
 423              	.L45:
 424 0068 5C010000 		.word	.LC8
 425 006c 60010000 		.word	.LC9
 426 0070 64010000 		.word	.LC10
 427 0074 6C010000 		.word	.LC11
 428 0078 74010000 		.word	.LC12
 429 007c 7C010000 		.word	.LC13
 430 0080 84010000 		.word	.LC14
 431              		.cfi_endproc
 432              	.LFE72:
 433              		.size	parse_command, .-parse_command
 434              		.section	.text.uart_input_task,"ax",%progbits
 435              		.align	2
 436              		.global	uart_input_task
 437              		.thumb
 438              		.thumb_func
 439              		.type	uart_input_task, %function
 440              	uart_input_task:
 441              	.LFB73:
  65:main.c        ****     char buffer[32];
 442              		.loc 1 65 0
 443              		.cfi_startproc
 444              		@ args = 0, pretend = 0, frame = 40
 445              		@ frame_needed = 0, uses_anonymous_args = 0
 446              	.LVL55:
 447 0000 30B5     		push	{r4, r5, lr}
 448              		.cfi_def_cfa_offset 12
 449              		.cfi_offset 4, -12
 450              		.cfi_offset 5, -8
 451              		.cfi_offset 14, -4
 452 0002 8BB0     		sub	sp, sp, #44
 453              		.cfi_def_cfa_offset 56
 454              	.LVL56:
  67:main.c        **** 
 455              		.loc 1 67 0
 456 0004 0024     		movs	r4, #0
 457              	.LVL57:
 458              	.L53:
 459              	.LBB4:
  70:main.c        ****         if (ch != 0u && ch != 0xFF) {
 460              		.loc 1 70 0
 461 0006 FFF7FEFF 		bl	UART_GetChar
 462              	.LVL58:
  71:main.c        ****             if (ch == '\r' || ch == '\n') {
 463              		.loc 1 71 0
 464 000a 431E     		subs	r3, r0, #1
 465 000c DBB2     		uxtb	r3, r3
 466 000e FD2B     		cmp	r3, #253
 467 0010 2ED8     		bhi	.L48
  72:main.c        ****                 buffer[index] = '\0';
 468              		.loc 1 72 0
 469 0012 0D28     		cmp	r0, #13
 470 0014 01D0     		beq	.L49
  72:main.c        ****                 buffer[index] = '\0';
 471              		.loc 1 72 0 is_stmt 0 discriminator 1
ARM GAS  C:\Users\karthik\AppData\Local\Temp\ccOcPlaW.s 			page 12


 472 0016 0A28     		cmp	r0, #10
 473 0018 1FD1     		bne	.L50
 474              	.L49:
 475              	.LBB5:
  73:main.c        ****                 index = 0;
 476              		.loc 1 73 0 is_stmt 1
 477 001a 0AAB     		add	r3, sp, #40
 478 001c 1C44     		add	r4, r4, r3
 479              	.LVL59:
 480 001e 0023     		movs	r3, #0
 481 0020 04F8203C 		strb	r3, [r4, #-32]
 482              	.LVL60:
  76:main.c        ****                 if (cmd != LED_INVALID) {
 483              		.loc 1 76 0
 484 0024 02A8     		add	r0, sp, #8
 485              	.LVL61:
 486 0026 FFF7FEFF 		bl	parse_command
 487              	.LVL62:
 488 002a 8DF80700 		strb	r0, [sp, #7]
  77:main.c        ****                     xQueueOverwrite(led_mailbox, &cmd);
 489              		.loc 1 77 0
 490 002e 0728     		cmp	r0, #7
 491 0030 0BD0     		beq	.L51
  78:main.c        ****                     uart_print("\r\nCommand received\r\n");
 492              		.loc 1 78 0
 493 0032 0223     		movs	r3, #2
 494 0034 0022     		movs	r2, #0
 495 0036 0DF10701 		add	r1, sp, #7
 496 003a 0F48     		ldr	r0, .L55
 497 003c 0068     		ldr	r0, [r0]
 498 003e FFF7FEFF 		bl	xQueueGenericSend
 499              	.LVL63:
  79:main.c        ****                 } else {
 500              		.loc 1 79 0
 501 0042 0E48     		ldr	r0, .L55+4
 502 0044 FFF7FEFF 		bl	uart_print
 503              	.LVL64:
 504 0048 02E0     		b	.L52
 505              	.L51:
  81:main.c        ****                 }
 506              		.loc 1 81 0
 507 004a 0D48     		ldr	r0, .L55+8
 508 004c FFF7FEFF 		bl	uart_print
 509              	.LVL65:
 510              	.L52:
  83:main.c        ****             } else if (index < sizeof(buffer) - 1) {
 511              		.loc 1 83 0
 512 0050 0C48     		ldr	r0, .L55+12
 513 0052 FFF7FEFF 		bl	uart_print
 514              	.LVL66:
  74:main.c        **** 
 515              		.loc 1 74 0
 516 0056 0024     		movs	r4, #0
 517              	.LBE5:
  72:main.c        ****                 buffer[index] = '\0';
 518              		.loc 1 72 0
 519 0058 0AE0     		b	.L48
ARM GAS  C:\Users\karthik\AppData\Local\Temp\ccOcPlaW.s 			page 13


 520              	.LVL67:
 521              	.L50:
  84:main.c        ****                 buffer[index++] = ch;
 522              		.loc 1 84 0
 523 005a 1E2C     		cmp	r4, #30
 524 005c 08D8     		bhi	.L48
  85:main.c        ****                 uart_putchar(ch);
 525              		.loc 1 85 0
 526 005e 651C     		adds	r5, r4, #1
 527 0060 EDB2     		uxtb	r5, r5
 528              	.LVL68:
 529 0062 0AAB     		add	r3, sp, #40
 530 0064 1C44     		add	r4, r4, r3
 531 0066 04F8200C 		strb	r0, [r4, #-32]
  86:main.c        ****             }
 532              		.loc 1 86 0
 533 006a FFF7FEFF 		bl	uart_putchar
 534              	.LVL69:
  85:main.c        ****                 uart_putchar(ch);
 535              		.loc 1 85 0
 536 006e 2C46     		mov	r4, r5
 537              	.LVL70:
 538              	.L48:
  90:main.c        ****     }
 539              		.loc 1 90 0
 540 0070 0A20     		movs	r0, #10
 541 0072 FFF7FEFF 		bl	vTaskDelay
 542              	.LVL71:
 543              	.LBE4:
  91:main.c        **** }
 544              		.loc 1 91 0
 545 0076 C6E7     		b	.L53
 546              	.L56:
 547              		.align	2
 548              	.L55:
 549 0078 00000000 		.word	led_mailbox
 550 007c 8C010000 		.word	.LC15
 551 0080 A4010000 		.word	.LC16
 552 0084 C8010000 		.word	.LC17
 553              		.cfi_endproc
 554              	.LFE73:
 555              		.size	uart_input_task, .-uart_input_task
 556              		.section	.text.main,"ax",%progbits
 557              		.align	2
 558              		.global	main
 559              		.thumb
 560              		.thumb_func
 561              		.type	main, %function
 562              	main:
 563              	.LFB75:
 132:main.c        ****                 default:
 133:main.c        ****                     break;
 134:main.c        ****             }
 135:main.c        ****         }
 136:main.c        ****     }
 137:main.c        **** }
 138:main.c        **** 
ARM GAS  C:\Users\karthik\AppData\Local\Temp\ccOcPlaW.s 			page 14


 139:main.c        **** int main(void) {
 564              		.loc 1 139 0
 565              		.cfi_startproc
 566              		@ Volatile: function does not return.
 567              		@ args = 0, pretend = 0, frame = 0
 568              		@ frame_needed = 0, uses_anonymous_args = 0
 569 0000 00B5     		push	{lr}
 570              		.cfi_def_cfa_offset 4
 571              		.cfi_offset 14, -4
 572 0002 83B0     		sub	sp, sp, #12
 573              		.cfi_def_cfa_offset 16
 140:main.c        ****     CyGlobalIntEnable;
 574              		.loc 1 140 0
 575              		.syntax unified
 576              	@ 140 "main.c" 1
 577 0004 62B6     		CPSIE   i
 578              	@ 0 "" 2
 141:main.c        ****     FreeRTOS_Start();
 579              		.loc 1 141 0
 580              		.thumb
 581              		.syntax unified
 582 0006 FFF7FEFF 		bl	FreeRTOS_Start
 583              	.LVL72:
 142:main.c        ****     UART_Start();
 584              		.loc 1 142 0
 585 000a FFF7FEFF 		bl	UART_Start
 586              	.LVL73:
 143:main.c        ****     UART_ClearTxBuffer();
 587              		.loc 1 143 0
 588 000e FFF7FEFF 		bl	UART_ClearTxBuffer
 589              	.LVL74:
 144:main.c        **** 
 145:main.c        ****     uart_mutex = xSemaphoreCreateMutex();
 590              		.loc 1 145 0
 591 0012 0120     		movs	r0, #1
 592 0014 FFF7FEFF 		bl	xQueueCreateMutex
 593              	.LVL75:
 594 0018 134B     		ldr	r3, .L64
 595 001a 1860     		str	r0, [r3]
 146:main.c        ****     if (uart_mutex == NULL) {
 596              		.loc 1 146 0
 597 001c 00B9     		cbnz	r0, .L58
 598              	.L59:
 599 001e FEE7     		b	.L59
 600              	.L58:
 147:main.c        ****         while (1); // Error creating mutex
 148:main.c        ****     }
 149:main.c        **** 
 150:main.c        ****     led_mailbox = xQueueCreate(1, sizeof(led_cmd_t));
 601              		.loc 1 150 0
 602 0020 0022     		movs	r2, #0
 603 0022 0121     		movs	r1, #1
 604 0024 0846     		mov	r0, r1
 605 0026 FFF7FEFF 		bl	xQueueGenericCreate
 606              	.LVL76:
 607 002a 104B     		ldr	r3, .L64+4
 608 002c 1860     		str	r0, [r3]
ARM GAS  C:\Users\karthik\AppData\Local\Temp\ccOcPlaW.s 			page 15


 151:main.c        ****     if (led_mailbox == NULL) {
 609              		.loc 1 151 0
 610 002e 18B9     		cbnz	r0, .L60
 152:main.c        ****         uart_print("Failed to create mailbox\r\n");
 611              		.loc 1 152 0
 612 0030 0F48     		ldr	r0, .L64+8
 613 0032 FFF7FEFF 		bl	uart_print
 614              	.LVL77:
 615              	.L61:
 616 0036 FEE7     		b	.L61
 617              	.L60:
 153:main.c        ****         while (1);
 154:main.c        ****     }
 155:main.c        **** 
 156:main.c        ****     print_help();
 618              		.loc 1 156 0
 619 0038 FFF7FEFF 		bl	print_help
 620              	.LVL78:
 157:main.c        **** 
 158:main.c        ****     xTaskCreate(uart_input_task, "UART Task", 200, NULL, 2, NULL);
 621              		.loc 1 158 0
 622 003c 0024     		movs	r4, #0
 623 003e 0194     		str	r4, [sp, #4]
 624 0040 0225     		movs	r5, #2
 625 0042 0095     		str	r5, [sp]
 626 0044 2346     		mov	r3, r4
 627 0046 C822     		movs	r2, #200
 628 0048 0A49     		ldr	r1, .L64+12
 629 004a 0B48     		ldr	r0, .L64+16
 630 004c FFF7FEFF 		bl	xTaskCreate
 631              	.LVL79:
 159:main.c        ****     xTaskCreate(led_task, "LED Task", 200, NULL, 2, NULL);
 632              		.loc 1 159 0
 633 0050 0194     		str	r4, [sp, #4]
 634 0052 0095     		str	r5, [sp]
 635 0054 2346     		mov	r3, r4
 636 0056 C822     		movs	r2, #200
 637 0058 0849     		ldr	r1, .L64+20
 638 005a 0948     		ldr	r0, .L64+24
 639 005c FFF7FEFF 		bl	xTaskCreate
 640              	.LVL80:
 160:main.c        **** 
 161:main.c        ****     vTaskStartScheduler();
 641              		.loc 1 161 0
 642 0060 FFF7FEFF 		bl	vTaskStartScheduler
 643              	.LVL81:
 644              	.L62:
 645 0064 FEE7     		b	.L62
 646              	.L65:
 647 0066 00BF     		.align	2
 648              	.L64:
 649 0068 00000000 		.word	uart_mutex
 650 006c 00000000 		.word	led_mailbox
 651 0070 CC010000 		.word	.LC18
 652 0074 E8010000 		.word	.LC19
 653 0078 00000000 		.word	uart_input_task
 654 007c F4010000 		.word	.LC20
ARM GAS  C:\Users\karthik\AppData\Local\Temp\ccOcPlaW.s 			page 16


 655 0080 00000000 		.word	led_task
 656              		.cfi_endproc
 657              	.LFE75:
 658              		.size	main, .-main
 659              		.comm	uart_mutex,4,4
 660              		.comm	led_mailbox,4,4
 661              		.section	.rodata.str1.4,"aMS",%progbits,1
 662              		.align	2
 663              	.LC0:
 664 0000 0D0A4176 		.ascii	"\015\012Available Commands:\015\012on     - Turn LE"
 664      61696C61 
 664      626C6520 
 664      436F6D6D 
 664      616E6473 
 665 0027 44204F4E 		.ascii	"D ON\015\012off    - Turn LED OFF\015\012toggle - T"
 665      0D0A6F66 
 665      66202020 
 665      202D2054 
 665      75726E20 
 666 004e 6F67676C 		.ascii	"oggle LED state\015\012status - Show LED state\015\012"
 666      65204C45 
 666      44207374 
 666      6174650D 
 666      0A737461 
 667 0078 626C696E 		.ascii	"blink  - Blink LED 3 times\015\012sleep  - Pause fo"
 667      6B20202D 
 667      20426C69 
 667      6E6B204C 
 667      45442033 
 668 00a5 72203520 		.ascii	"r 5 seconds\015\012help   - Show this help message\015"
 668      7365636F 
 668      6E64730D 
 668      0A68656C 
 668      70202020 
 669 00d2 0A3E2000 		.ascii	"\012> \000"
 670 00d6 0000     		.space	2
 671              	.LC1:
 672 00d8 4C454420 		.ascii	"LED ON\015\012\000"
 672      4F4E0D0A 
 672      00
 673 00e1 000000   		.space	3
 674              	.LC2:
 675 00e4 4C454420 		.ascii	"LED OFF\015\012\000"
 675      4F46460D 
 675      0A00
 676 00ee 0000     		.space	2
 677              	.LC3:
 678 00f0 4C454420 		.ascii	"LED is currently ON\015\012\000"
 678      69732063 
 678      75727265 
 678      6E746C79 
 678      204F4E0D 
 679 0106 0000     		.space	2
 680              	.LC4:
 681 0108 4C454420 		.ascii	"LED is currently OFF\015\012\000"
 681      69732063 
 681      75727265 
ARM GAS  C:\Users\karthik\AppData\Local\Temp\ccOcPlaW.s 			page 17


 681      6E746C79 
 681      204F4646 
 682 011f 00       		.space	1
 683              	.LC5:
 684 0120 426C696E 		.ascii	"Blinked 3 times\015\012\000"
 684      6B656420 
 684      33207469 
 684      6D65730D 
 684      0A00
 685 0132 0000     		.space	2
 686              	.LC6:
 687 0134 536C6565 		.ascii	"Sleeping for 5 seconds...\015\012\000"
 687      70696E67 
 687      20666F72 
 687      20352073 
 687      65636F6E 
 688              	.LC7:
 689 0150 576F6B65 		.ascii	"Woke up\015\012\000"
 689      2075700D 
 689      0A00
 690 015a 0000     		.space	2
 691              	.LC8:
 692 015c 6F6E00   		.ascii	"on\000"
 693 015f 00       		.space	1
 694              	.LC9:
 695 0160 6F666600 		.ascii	"off\000"
 696              	.LC10:
 697 0164 746F6767 		.ascii	"toggle\000"
 697      6C6500
 698 016b 00       		.space	1
 699              	.LC11:
 700 016c 73746174 		.ascii	"status\000"
 700      757300
 701 0173 00       		.space	1
 702              	.LC12:
 703 0174 626C696E 		.ascii	"blink\000"
 703      6B00
 704 017a 0000     		.space	2
 705              	.LC13:
 706 017c 736C6565 		.ascii	"sleep\000"
 706      7000
 707 0182 0000     		.space	2
 708              	.LC14:
 709 0184 68656C70 		.ascii	"help\000"
 709      00
 710 0189 000000   		.space	3
 711              	.LC15:
 712 018c 0D0A436F 		.ascii	"\015\012Command received\015\012\000"
 712      6D6D616E 
 712      64207265 
 712      63656976 
 712      65640D0A 
 713 01a1 000000   		.space	3
 714              	.LC16:
 715 01a4 0D0A496E 		.ascii	"\015\012Invalid command. Type 'help'\015\012\000"
 715      76616C69 
 715      6420636F 
ARM GAS  C:\Users\karthik\AppData\Local\Temp\ccOcPlaW.s 			page 18


 715      6D6D616E 
 715      642E2054 
 716 01c5 000000   		.space	3
 717              	.LC17:
 718 01c8 3E2000   		.ascii	"> \000"
 719 01cb 00       		.space	1
 720              	.LC18:
 721 01cc 4661696C 		.ascii	"Failed to create mailbox\015\012\000"
 721      65642074 
 721      6F206372 
 721      65617465 
 721      206D6169 
 722 01e7 00       		.space	1
 723              	.LC19:
 724 01e8 55415254 		.ascii	"UART Task\000"
 724      20546173 
 724      6B00
 725 01f2 0000     		.space	2
 726              	.LC20:
 727 01f4 4C454420 		.ascii	"LED Task\000"
 727      5461736B 
 727      00
 728              		.text
 729              	.Letext0:
 730              		.file 2 "c:\\program files (x86)\\cypress\\psoc creator\\4.4\\psoc creator\\import\\gnu\\arm\\5.4.
 731              		.file 3 "c:\\program files (x86)\\cypress\\psoc creator\\4.4\\psoc creator\\import\\gnu\\arm\\5.4.
 732              		.file 4 "..\\FreeRTOS\\Source\\portable\\GCC\\ARM_CM3/portmacro.h"
 733              		.file 5 "..\\FreeRTOS\\Source\\include/queue.h"
 734              		.file 6 "..\\FreeRTOS\\Source\\include/semphr.h"
 735              		.file 7 "Generated_Source\\PSoC5/core_cm3.h"
 736              		.file 8 "Generated_Source\\PSoC5/UART.h"
 737              		.file 9 "Generated_Source\\PSoC5/Pin_LED.h"
 738              		.file 10 "..\\FreeRTOS\\Source\\include/task.h"
 739              		.file 11 "c:\\program files (x86)\\cypress\\psoc creator\\4.4\\psoc creator\\import\\gnu\\arm\\5.4