ARM GAS  C:\Users\karthik\AppData\Local\Temp\ccPSnWtR.s 			page 1


   1              		.syntax unified
   2              		.cpu cortex-m3
   3              		.fpu softvfp
   4              		.eabi_attribute 20, 1
   5              		.eabi_attribute 21, 1
   6              		.eabi_attribute 23, 3
   7              		.eabi_attribute 24, 1
   8              		.eabi_attribute 25, 1
   9              		.eabi_attribute 26, 1
  10              		.eabi_attribute 30, 1
  11              		.eabi_attribute 34, 1
  12              		.eabi_attribute 18, 4
  13              		.thumb
  14              		.syntax unified
  15              		.file	"main.c"
  16              		.text
  17              	.Ltext0:
  18              		.cfi_sections	.debug_frame
  19              		.section	.text.uart_input_task,"ax",%progbits
  20              		.align	2
  21              		.global	uart_input_task
  22              		.thumb
  23              		.thumb_func
  24              		.type	uart_input_task, %function
  25              	uart_input_task:
  26              	.LFB69:
  27              		.file 1 "main.c"
   1:main.c        **** #include <stdio.h>
   2:main.c        **** #include <stdlib.h>
   3:main.c        **** #include <string.h>
   4:main.c        **** #include "project.h"
   5:main.c        **** #include "FreeRTOS.h"
   6:main.c        **** #include "task.h"
   7:main.c        **** #include "semphr.h"
   8:main.c        **** 
   9:main.c        **** extern void FreeRTOS_Start();
  10:main.c        **** 
  11:main.c        **** SemaphoreHandle_t led_semaphore;
  12:main.c        **** 
  13:main.c        **** void uart_input_task(void *ptr) {
  28              		.loc 1 13 0
  29              		.cfi_startproc
  30              		@ args = 0, pretend = 0, frame = 24
  31              		@ frame_needed = 0, uses_anonymous_args = 0
  32              	.LVL0:
  33 0000 30B5     		push	{r4, r5, lr}
  34              		.cfi_def_cfa_offset 12
  35              		.cfi_offset 4, -12
  36              		.cfi_offset 5, -8
  37              		.cfi_offset 14, -4
  38 0002 87B0     		sub	sp, sp, #28
  39              		.cfi_def_cfa_offset 40
  40              	.LVL1:
  14:main.c        ****     char buffer[20];
  15:main.c        ****     uint8_t index = 0;
  41              		.loc 1 15 0
  42 0004 0024     		movs	r4, #0
ARM GAS  C:\Users\karthik\AppData\Local\Temp\ccPSnWtR.s 			page 2


  43              	.LVL2:
  44              	.L6:
  45              	.LBB2:
  16:main.c        ****     while(1) {
  17:main.c        ****         char ch = UART_GetChar();
  46              		.loc 1 17 0
  47 0006 FFF7FEFF 		bl	UART_GetChar
  48              	.LVL3:
  18:main.c        ****         if (ch != 0u && ch != 0xFF) {
  49              		.loc 1 18 0
  50 000a 431E     		subs	r3, r0, #1
  51 000c DBB2     		uxtb	r3, r3
  52 000e FD2B     		cmp	r3, #253
  53 0010 29D8     		bhi	.L2
  19:main.c        ****             if (ch == '\r' || ch == '\n') {
  54              		.loc 1 19 0
  55 0012 0D28     		cmp	r0, #13
  56 0014 01D0     		beq	.L3
  57              		.loc 1 19 0 is_stmt 0 discriminator 1
  58 0016 0A28     		cmp	r0, #10
  59 0018 1AD1     		bne	.L4
  60              	.L3:
  20:main.c        ****                 buffer[index] = '\0';
  61              		.loc 1 20 0 is_stmt 1
  62 001a 06AB     		add	r3, sp, #24
  63 001c 1C44     		add	r4, r4, r3
  64              	.LVL4:
  65 001e 0023     		movs	r3, #0
  66 0020 04F8143C 		strb	r3, [r4, #-20]
  67              	.LVL5:
  21:main.c        ****                 index = 0;
  22:main.c        ****                 if (strcasecmp(buffer, "toggle") == 0) {
  68              		.loc 1 22 0
  69 0024 1249     		ldr	r1, .L8
  70 0026 01A8     		add	r0, sp, #4
  71              	.LVL6:
  72 0028 FFF7FEFF 		bl	strcasecmp
  73              	.LVL7:
  74 002c 58B9     		cbnz	r0, .L5
  23:main.c        ****                     UART_PutString("\r\nToggle command received\r\n");
  75              		.loc 1 23 0
  76 002e 1148     		ldr	r0, .L8+4
  77 0030 FFF7FEFF 		bl	UART_PutString
  78              	.LVL8:
  24:main.c        ****                     xSemaphoreGive(led_semaphore);
  79              		.loc 1 24 0
  80 0034 0023     		movs	r3, #0
  81 0036 1A46     		mov	r2, r3
  82 0038 1946     		mov	r1, r3
  83 003a 0F48     		ldr	r0, .L8+8
  84 003c 0068     		ldr	r0, [r0]
  85 003e FFF7FEFF 		bl	xQueueGenericSend
  86              	.LVL9:
  21:main.c        ****                 index = 0;
  87              		.loc 1 21 0
  88 0042 0024     		movs	r4, #0
  89 0044 0FE0     		b	.L2
ARM GAS  C:\Users\karthik\AppData\Local\Temp\ccPSnWtR.s 			page 3


  90              	.L5:
  25:main.c        ****                 } else {
  26:main.c        ****                     UART_PutString("\r\nUnknown command\r\n");
  91              		.loc 1 26 0
  92 0046 0D48     		ldr	r0, .L8+12
  93 0048 FFF7FEFF 		bl	UART_PutString
  94              	.LVL10:
  21:main.c        ****                 if (strcasecmp(buffer, "toggle") == 0) {
  95              		.loc 1 21 0
  96 004c 0024     		movs	r4, #0
  97 004e 0AE0     		b	.L2
  98              	.LVL11:
  99              	.L4:
  27:main.c        ****                 }
  28:main.c        ****             } else if (index < sizeof(buffer) - 1) {
 100              		.loc 1 28 0
 101 0050 122C     		cmp	r4, #18
 102 0052 08D8     		bhi	.L2
  29:main.c        ****                 buffer[index++] = ch;
 103              		.loc 1 29 0
 104 0054 651C     		adds	r5, r4, #1
 105 0056 EDB2     		uxtb	r5, r5
 106              	.LVL12:
 107 0058 06AB     		add	r3, sp, #24
 108 005a 1C44     		add	r4, r4, r3
 109 005c 04F8140C 		strb	r0, [r4, #-20]
  30:main.c        ****                 UART_PutChar(ch);
 110              		.loc 1 30 0
 111 0060 FFF7FEFF 		bl	UART_PutChar
 112              	.LVL13:
  29:main.c        ****                 buffer[index++] = ch;
 113              		.loc 1 29 0
 114 0064 2C46     		mov	r4, r5
 115              	.LVL14:
 116              	.L2:
  31:main.c        ****             }
  32:main.c        ****         }
  33:main.c        ****         vTaskDelay(10);
 117              		.loc 1 33 0
 118 0066 0A20     		movs	r0, #10
 119 0068 FFF7FEFF 		bl	vTaskDelay
 120              	.LVL15:
 121              	.LBE2:
  34:main.c        ****     }
 122              		.loc 1 34 0
 123 006c CBE7     		b	.L6
 124              	.L9:
 125 006e 00BF     		.align	2
 126              	.L8:
 127 0070 00000000 		.word	.LC0
 128 0074 08000000 		.word	.LC1
 129 0078 00000000 		.word	led_semaphore
 130 007c 24000000 		.word	.LC2
 131              		.cfi_endproc
 132              	.LFE69:
 133              		.size	uart_input_task, .-uart_input_task
 134              		.section	.text.led_task,"ax",%progbits
ARM GAS  C:\Users\karthik\AppData\Local\Temp\ccPSnWtR.s 			page 4


 135              		.align	2
 136              		.global	led_task
 137              		.thumb
 138              		.thumb_func
 139              		.type	led_task, %function
 140              	led_task:
 141              	.LFB70:
  35:main.c        **** }
  36:main.c        **** 
  37:main.c        **** void led_task(void *ptr) {
 142              		.loc 1 37 0
 143              		.cfi_startproc
 144              		@ Volatile: function does not return.
 145              		@ args = 0, pretend = 0, frame = 0
 146              		@ frame_needed = 0, uses_anonymous_args = 0
 147              	.LVL16:
 148 0000 08B5     		push	{r3, lr}
 149              		.cfi_def_cfa_offset 8
 150              		.cfi_offset 3, -8
 151              		.cfi_offset 14, -4
 152              	.LVL17:
 153              	.L11:
  38:main.c        ****     while(1) {
  39:main.c        ****         if(xSemaphoreTake(led_semaphore, portMAX_DELAY) == pdTRUE) {
 154              		.loc 1 39 0
 155 0002 4FF0FF31 		mov	r1, #-1
 156 0006 0B4B     		ldr	r3, .L16
 157 0008 1868     		ldr	r0, [r3]
 158 000a FFF7FEFF 		bl	xQueueSemaphoreTake
 159              	.LVL18:
 160 000e 0128     		cmp	r0, #1
 161 0010 F7D1     		bne	.L11
  40:main.c        ****             led_Write(!led_Read());
 162              		.loc 1 40 0
 163 0012 FFF7FEFF 		bl	led_Read
 164              	.LVL19:
 165 0016 B0FA80F0 		clz	r0, r0
 166 001a 4009     		lsrs	r0, r0, #5
 167 001c FFF7FEFF 		bl	led_Write
 168              	.LVL20:
  41:main.c        ****             UART_PutString(led_Read() ? "LED ON\r\n" : "LED OFF\r\n");
 169              		.loc 1 41 0
 170 0020 FFF7FEFF 		bl	led_Read
 171              	.LVL21:
 172 0024 08B1     		cbz	r0, .L14
 173 0026 0448     		ldr	r0, .L16+4
 174 0028 00E0     		b	.L12
 175              	.L14:
 176 002a 0448     		ldr	r0, .L16+8
 177              	.L12:
 178              		.loc 1 41 0 is_stmt 0 discriminator 4
 179 002c FFF7FEFF 		bl	UART_PutString
 180              	.LVL22:
 181 0030 E7E7     		b	.L11
 182              	.L17:
 183 0032 00BF     		.align	2
 184              	.L16:
ARM GAS  C:\Users\karthik\AppData\Local\Temp\ccPSnWtR.s 			page 5


 185 0034 00000000 		.word	led_semaphore
 186 0038 38000000 		.word	.LC3
 187 003c 44000000 		.word	.LC4
 188              		.cfi_endproc
 189              	.LFE70:
 190              		.size	led_task, .-led_task
 191              		.section	.text.main,"ax",%progbits
 192              		.align	2
 193              		.global	main
 194              		.thumb
 195              		.thumb_func
 196              		.type	main, %function
 197              	main:
 198              	.LFB71:
  42:main.c        ****         }
  43:main.c        ****     }
  44:main.c        **** }
  45:main.c        **** 
  46:main.c        **** int main(void) {
 199              		.loc 1 46 0 is_stmt 1
 200              		.cfi_startproc
 201              		@ Volatile: function does not return.
 202              		@ args = 0, pretend = 0, frame = 0
 203              		@ frame_needed = 0, uses_anonymous_args = 0
 204 0000 00B5     		push	{lr}
 205              		.cfi_def_cfa_offset 4
 206              		.cfi_offset 14, -4
 207 0002 83B0     		sub	sp, sp, #12
 208              		.cfi_def_cfa_offset 16
  47:main.c        ****     CyGlobalIntEnable;
 209              		.loc 1 47 0
 210              		.syntax unified
 211              	@ 47 "main.c" 1
 212 0004 62B6     		CPSIE   i
 213              	@ 0 "" 2
  48:main.c        ****     FreeRTOS_Start();
 214              		.loc 1 48 0
 215              		.thumb
 216              		.syntax unified
 217 0006 FFF7FEFF 		bl	FreeRTOS_Start
 218              	.LVL23:
  49:main.c        ****     UART_Start();
 219              		.loc 1 49 0
 220 000a FFF7FEFF 		bl	UART_Start
 221              	.LVL24:
  50:main.c        ****     UART_ClearTxBuffer();
 222              		.loc 1 50 0
 223 000e FFF7FEFF 		bl	UART_ClearTxBuffer
 224              	.LVL25:
  51:main.c        ****     led_semaphore = xSemaphoreCreateBinary();
 225              		.loc 1 51 0
 226 0012 0322     		movs	r2, #3
 227 0014 0021     		movs	r1, #0
 228 0016 0120     		movs	r0, #1
 229 0018 FFF7FEFF 		bl	xQueueGenericCreate
 230              	.LVL26:
 231 001c 104C     		ldr	r4, .L23
ARM GAS  C:\Users\karthik\AppData\Local\Temp\ccPSnWtR.s 			page 6


 232 001e 2060     		str	r0, [r4]
  52:main.c        ****     UART_PutString("Enter Toggle in the window to switch the LED state\r\n");
 233              		.loc 1 52 0
 234 0020 1048     		ldr	r0, .L23+4
 235 0022 FFF7FEFF 		bl	UART_PutString
 236              	.LVL27:
  53:main.c        ****     if(led_semaphore == NULL) {
 237              		.loc 1 53 0
 238 0026 2368     		ldr	r3, [r4]
 239 0028 1BB9     		cbnz	r3, .L19
  54:main.c        ****         UART_PutString("Failed to create semaphore\r\n");
 240              		.loc 1 54 0
 241 002a 0F48     		ldr	r0, .L23+8
 242 002c FFF7FEFF 		bl	UART_PutString
 243              	.LVL28:
 244              	.L20:
 245 0030 FEE7     		b	.L20
 246              	.L19:
  55:main.c        ****         while(1);
  56:main.c        ****     }
  57:main.c        ****     xTaskCreate(uart_input_task, "UART Task", 200, NULL, 3, NULL);
 247              		.loc 1 57 0
 248 0032 0024     		movs	r4, #0
 249 0034 0194     		str	r4, [sp, #4]
 250 0036 0323     		movs	r3, #3
 251 0038 0093     		str	r3, [sp]
 252 003a 2346     		mov	r3, r4
 253 003c C822     		movs	r2, #200
 254 003e 0B49     		ldr	r1, .L23+12
 255 0040 0B48     		ldr	r0, .L23+16
 256 0042 FFF7FEFF 		bl	xTaskCreate
 257              	.LVL29:
  58:main.c        ****     xTaskCreate(led_task, "LED Task", 200, NULL, 2, NULL);
 258              		.loc 1 58 0
 259 0046 0194     		str	r4, [sp, #4]
 260 0048 0223     		movs	r3, #2
 261 004a 0093     		str	r3, [sp]
 262 004c 2346     		mov	r3, r4
 263 004e C822     		movs	r2, #200
 264 0050 0849     		ldr	r1, .L23+20
 265 0052 0948     		ldr	r0, .L23+24
 266 0054 FFF7FEFF 		bl	xTaskCreate
 267              	.LVL30:
  59:main.c        ****     vTaskStartScheduler();
 268              		.loc 1 59 0
 269 0058 FFF7FEFF 		bl	vTaskStartScheduler
 270              	.LVL31:
 271              	.L21:
 272 005c FEE7     		b	.L21
 273              	.L24:
 274 005e 00BF     		.align	2
 275              	.L23:
 276 0060 00000000 		.word	led_semaphore
 277 0064 50000000 		.word	.LC5
 278 0068 88000000 		.word	.LC6
 279 006c A8000000 		.word	.LC7
 280 0070 00000000 		.word	uart_input_task
ARM GAS  C:\Users\karthik\AppData\Local\Temp\ccPSnWtR.s 			page 7


 281 0074 B4000000 		.word	.LC8
 282 0078 00000000 		.word	led_task
 283              		.cfi_endproc
 284              	.LFE71:
 285              		.size	main, .-main
 286              		.comm	led_semaphore,4,4
 287              		.section	.rodata.str1.4,"aMS",%progbits,1
 288              		.align	2
 289              	.LC0:
 290 0000 746F6767 		.ascii	"toggle\000"
 290      6C6500
 291 0007 00       		.space	1
 292              	.LC1:
 293 0008 0D0A546F 		.ascii	"\015\012Toggle command received\015\012\000"
 293      67676C65 
 293      20636F6D 
 293      6D616E64 
 293      20726563 
 294              	.LC2:
 295 0024 0D0A556E 		.ascii	"\015\012Unknown command\015\012\000"
 295      6B6E6F77 
 295      6E20636F 
 295      6D6D616E 
 295      640D0A00 
 296              	.LC3:
 297 0038 4C454420 		.ascii	"LED ON\015\012\000"
 297      4F4E0D0A 
 297      00
 298 0041 000000   		.space	3
 299              	.LC4:
 300 0044 4C454420 		.ascii	"LED OFF\015\012\000"
 300      4F46460D 
 300      0A00
 301 004e 0000     		.space	2
 302              	.LC5:
 303 0050 456E7465 		.ascii	"Enter Toggle in the window to switch the LED state\015"
 303      7220546F 
 303      67676C65 
 303      20696E20 
 303      74686520 
 304 0083 0A00     		.ascii	"\012\000"
 305 0085 000000   		.space	3
 306              	.LC6:
 307 0088 4661696C 		.ascii	"Failed to create semaphore\015\012\000"
 307      65642074 
 307      6F206372 
 307      65617465 
 307      2073656D 
 308 00a5 000000   		.space	3
 309              	.LC7:
 310 00a8 55415254 		.ascii	"UART Task\000"
 310      20546173 
 310      6B00
 311 00b2 0000     		.space	2
 312              	.LC8:
 313 00b4 4C454420 		.ascii	"LED Task\000"
 313      5461736B 
ARM GAS  C:\Users\karthik\AppData\Local\Temp\ccPSnWtR.s 			page 8


 313      00
 314              		.text
 315              	.Letext0:
 316              		.file 2 "c:\\program files (x86)\\cypress\\psoc creator\\4.4\\psoc creator\\import\\gnu\\arm\\5.4.
 317              		.file 3 "c:\\program files (x86)\\cypress\\psoc creator\\4.4\\psoc creator\\import\\gnu\\arm\\5.4.
 318              		.file 4 "..\\FreeRTOS\\Source\\portable\\GCC\\ARM_CM3/portmacro.h"
 319              		.file 5 "..\\FreeRTOS\\Source\\include/queue.h"
 320              		.file 6 "..\\FreeRTOS\\Source\\include/semphr.h"
 321              		.file 7 "Generated_Source\\PSoC5/core_cm3.h"
 322              		.file 8 "Generated_Source\\PSoC5/UART.h"
 323              		.file 9 "c:\\program files (x86)\\cypress\\psoc creator\\4.4\\psoc creator\\import\\gnu\\arm\\5.4.
 324              		.file 10 "..\\FreeRTOS\\Source\\include/task.h"
 325              		.file 11 "Generated_Source\\PSoC5/led.h"