ARM GAS  C:\Users\karthik\AppData\Local\Temp\cckOEOg9.s 			page 1


   1              		.syntax unified
   2              		.cpu cortex-m3
   3              		.fpu softvfp
   4              		.eabi_attribute 20, 1
   5              		.eabi_attribute 21, 1
   6              		.eabi_attribute 23, 3
   7              		.eabi_attribute 24, 1
   8              		.eabi_attribute 25, 1
   9              		.eabi_attribute 26, 1
  10              		.eabi_attribute 30, 1
  11              		.eabi_attribute 34, 1
  12              		.eabi_attribute 18, 4
  13              		.thumb
  14              		.syntax unified
  15              		.file	"main.c"
  16              		.text
  17              	.Ltext0:
  18              		.cfi_sections	.debug_frame
  19              		.section	.text.uart_input_task,"ax",%progbits
  20              		.align	2
  21              		.global	uart_input_task
  22              		.thumb
  23              		.thumb_func
  24              		.type	uart_input_task, %function
  25              	uart_input_task:
  26              	.LFB69:
  27              		.file 1 "main.c"
   1:main.c        **** #include <stdio.h>
   2:main.c        **** #include <stdlib.h>
   3:main.c        **** #include <string.h>
   4:main.c        **** #include "project.h"
   5:main.c        **** #include "FreeRTOS.h"
   6:main.c        **** #include "task.h"
   7:main.c        **** #include "queue.h"
   8:main.c        **** 
   9:main.c        **** extern void FreeRTOS_Start();
  10:main.c        **** 
  11:main.c        **** QueueHandle_t cmd_queue;
  12:main.c        **** 
  13:main.c        **** void uart_input_task(void *ptr) {
  28              		.loc 1 13 0
  29              		.cfi_startproc
  30              		@ args = 0, pretend = 0, frame = 24
  31              		@ frame_needed = 0, uses_anonymous_args = 0
  32              	.LVL0:
  33 0000 30B5     		push	{r4, r5, lr}
  34              		.cfi_def_cfa_offset 12
  35              		.cfi_offset 4, -12
  36              		.cfi_offset 5, -8
  37              		.cfi_offset 14, -4
  38 0002 87B0     		sub	sp, sp, #28
  39              		.cfi_def_cfa_offset 40
  40              	.LVL1:
  14:main.c        ****     char buffer[20];
  15:main.c        ****     uint8_t index = 0;
  41              		.loc 1 15 0
  42 0004 0024     		movs	r4, #0
ARM GAS  C:\Users\karthik\AppData\Local\Temp\cckOEOg9.s 			page 2


  43              	.LVL2:
  44              	.L6:
  45              	.LBB2:
  16:main.c        ****     while(1) {
  17:main.c        ****         char ch = UART_GetChar();
  46              		.loc 1 17 0
  47 0006 FFF7FEFF 		bl	UART_GetChar
  48              	.LVL3:
  18:main.c        ****         if (ch != 0u && ch != 0xFF) {
  49              		.loc 1 18 0
  50 000a 431E     		subs	r3, r0, #1
  51 000c DBB2     		uxtb	r3, r3
  52 000e FD2B     		cmp	r3, #253
  53 0010 2BD8     		bhi	.L2
  19:main.c        ****             if (ch == '\r' || ch == '\n') {
  54              		.loc 1 19 0
  55 0012 0D28     		cmp	r0, #13
  56 0014 01D0     		beq	.L3
  57              		.loc 1 19 0 is_stmt 0 discriminator 1
  58 0016 0A28     		cmp	r0, #10
  59 0018 1CD1     		bne	.L4
  60              	.L3:
  61              	.LBB3:
  20:main.c        ****                 buffer[index] = '\0';
  62              		.loc 1 20 0 is_stmt 1
  63 001a 06AB     		add	r3, sp, #24
  64 001c 1C44     		add	r4, r4, r3
  65              	.LVL4:
  66 001e 0023     		movs	r3, #0
  67 0020 04F8143C 		strb	r3, [r4, #-20]
  68              	.LVL5:
  21:main.c        ****                 index = 0;
  22:main.c        ****                 char *cmd = pvPortMalloc(strlen(buffer) + 1);
  69              		.loc 1 22 0
  70 0024 01A8     		add	r0, sp, #4
  71              	.LVL6:
  72 0026 FFF7FEFF 		bl	strlen
  73              	.LVL7:
  74 002a 0130     		adds	r0, r0, #1
  75 002c FFF7FEFF 		bl	pvPortMalloc
  76              	.LVL8:
  77 0030 0090     		str	r0, [sp]
  23:main.c        ****                 if (cmd != NULL) {
  78              		.loc 1 23 0
  79 0032 50B1     		cbz	r0, .L5
  24:main.c        ****                     strcpy(cmd, buffer);
  80              		.loc 1 24 0
  81 0034 01A9     		add	r1, sp, #4
  82 0036 FFF7FEFF 		bl	strcpy
  83              	.LVL9:
  25:main.c        ****                     xQueueSend(cmd_queue, &cmd, portMAX_DELAY);
  84              		.loc 1 25 0
  85 003a 0023     		movs	r3, #0
  86 003c 4FF0FF32 		mov	r2, #-1
  87 0040 6946     		mov	r1, sp
  88 0042 0C48     		ldr	r0, .L8
  89 0044 0068     		ldr	r0, [r0]
ARM GAS  C:\Users\karthik\AppData\Local\Temp\cckOEOg9.s 			page 3


  90 0046 FFF7FEFF 		bl	xQueueGenericSend
  91              	.LVL10:
  92              	.L5:
  26:main.c        ****                 }
  27:main.c        ****                 UART_PutString("\r\n> ");
  93              		.loc 1 27 0
  94 004a 0B48     		ldr	r0, .L8+4
  95 004c FFF7FEFF 		bl	UART_PutString
  96              	.LVL11:
  21:main.c        ****                 char *cmd = pvPortMalloc(strlen(buffer) + 1);
  97              		.loc 1 21 0
  98 0050 0024     		movs	r4, #0
  99              	.LBE3:
  19:main.c        ****                 buffer[index] = '\0';
 100              		.loc 1 19 0
 101 0052 0AE0     		b	.L2
 102              	.LVL12:
 103              	.L4:
  28:main.c        ****             } else if (index < sizeof(buffer) - 1) {
 104              		.loc 1 28 0
 105 0054 122C     		cmp	r4, #18
 106 0056 08D8     		bhi	.L2
  29:main.c        ****                 buffer[index++] = ch;
 107              		.loc 1 29 0
 108 0058 651C     		adds	r5, r4, #1
 109 005a EDB2     		uxtb	r5, r5
 110              	.LVL13:
 111 005c 06AB     		add	r3, sp, #24
 112 005e 1C44     		add	r4, r4, r3
 113 0060 04F8140C 		strb	r0, [r4, #-20]
  30:main.c        ****                 UART_PutChar(ch);
 114              		.loc 1 30 0
 115 0064 FFF7FEFF 		bl	UART_PutChar
 116              	.LVL14:
  29:main.c        ****                 buffer[index++] = ch;
 117              		.loc 1 29 0
 118 0068 2C46     		mov	r4, r5
 119              	.LVL15:
 120              	.L2:
  31:main.c        ****             }
  32:main.c        ****         }
  33:main.c        ****         vTaskDelay(10);
 121              		.loc 1 33 0
 122 006a 0A20     		movs	r0, #10
 123 006c FFF7FEFF 		bl	vTaskDelay
 124              	.LVL16:
 125              	.LBE2:
  34:main.c        ****     }
 126              		.loc 1 34 0
 127 0070 C9E7     		b	.L6
 128              	.L9:
 129 0072 00BF     		.align	2
 130              	.L8:
 131 0074 00000000 		.word	cmd_queue
 132 0078 00000000 		.word	.LC0
 133              		.cfi_endproc
 134              	.LFE69:
ARM GAS  C:\Users\karthik\AppData\Local\Temp\cckOEOg9.s 			page 4


 135              		.size	uart_input_task, .-uart_input_task
 136              		.section	.text.led_task,"ax",%progbits
 137              		.align	2
 138              		.global	led_task
 139              		.thumb
 140              		.thumb_func
 141              		.type	led_task, %function
 142              	led_task:
 143              	.LFB70:
  35:main.c        **** }
  36:main.c        **** 
  37:main.c        **** void led_task(void *ptr) {
 144              		.loc 1 37 0
 145              		.cfi_startproc
 146              		@ args = 0, pretend = 0, frame = 8
 147              		@ frame_needed = 0, uses_anonymous_args = 0
 148              	.LVL17:
 149 0000 10B5     		push	{r4, lr}
 150              		.cfi_def_cfa_offset 8
 151              		.cfi_offset 4, -8
 152              		.cfi_offset 14, -4
 153 0002 82B0     		sub	sp, sp, #8
 154              		.cfi_def_cfa_offset 16
 155              	.LVL18:
 156              	.L11:
  38:main.c        ****     char *cmd;
  39:main.c        ****     while(1) {
  40:main.c        ****         if (xQueueReceive(cmd_queue, &cmd, portMAX_DELAY) == pdTRUE) {
 157              		.loc 1 40 0
 158 0004 4FF0FF32 		mov	r2, #-1
 159 0008 01A9     		add	r1, sp, #4
 160 000a 364B     		ldr	r3, .L25
 161 000c 1868     		ldr	r0, [r3]
 162 000e FFF7FEFF 		bl	xQueueReceive
 163              	.LVL19:
 164 0012 0128     		cmp	r0, #1
 165 0014 F6D1     		bne	.L11
  41:main.c        ****             if (strcasecmp(cmd, "on") == 0) {
 166              		.loc 1 41 0
 167 0016 019C     		ldr	r4, [sp, #4]
 168 0018 3349     		ldr	r1, .L25+4
 169 001a 2046     		mov	r0, r4
 170 001c FFF7FEFF 		bl	strcasecmp
 171              	.LVL20:
 172 0020 30B9     		cbnz	r0, .L12
  42:main.c        ****                 Pin_LED_Write(1);
 173              		.loc 1 42 0
 174 0022 0120     		movs	r0, #1
 175 0024 FFF7FEFF 		bl	Pin_LED_Write
 176              	.LVL21:
  43:main.c        ****                 UART_PutString("\r\nLED turned ON\r\n");
 177              		.loc 1 43 0
 178 0028 3048     		ldr	r0, .L25+8
 179 002a FFF7FEFF 		bl	UART_PutString
 180              	.LVL22:
 181 002e 55E0     		b	.L13
 182              	.L12:
ARM GAS  C:\Users\karthik\AppData\Local\Temp\cckOEOg9.s 			page 5


  44:main.c        ****             } else if (strcasecmp(cmd, "off") == 0) {
 183              		.loc 1 44 0
 184 0030 2F49     		ldr	r1, .L25+12
 185 0032 2046     		mov	r0, r4
 186 0034 FFF7FEFF 		bl	strcasecmp
 187              	.LVL23:
 188 0038 28B9     		cbnz	r0, .L14
  45:main.c        ****                 Pin_LED_Write(0);
 189              		.loc 1 45 0
 190 003a FFF7FEFF 		bl	Pin_LED_Write
 191              	.LVL24:
  46:main.c        ****                 UART_PutString("\r\nLED turned OFF\r\n");
 192              		.loc 1 46 0
 193 003e 2D48     		ldr	r0, .L25+16
 194 0040 FFF7FEFF 		bl	UART_PutString
 195              	.LVL25:
 196 0044 4AE0     		b	.L13
 197              	.L14:
  47:main.c        ****             } else if (strcasecmp(cmd, "status") == 0) {
 198              		.loc 1 47 0
 199 0046 2C49     		ldr	r1, .L25+20
 200 0048 2046     		mov	r0, r4
 201 004a FFF7FEFF 		bl	strcasecmp
 202              	.LVL26:
 203 004e 40B9     		cbnz	r0, .L15
  48:main.c        ****                 UART_PutString(Pin_LED_Read() ? "\r\nLED is ON\r\n" : "\r\nLED is OFF\r\n");
 204              		.loc 1 48 0
 205 0050 FFF7FEFF 		bl	Pin_LED_Read
 206              	.LVL27:
 207 0054 08B1     		cbz	r0, .L23
 208 0056 2948     		ldr	r0, .L25+24
 209 0058 00E0     		b	.L16
 210              	.L23:
 211 005a 2948     		ldr	r0, .L25+28
 212              	.L16:
 213              		.loc 1 48 0 is_stmt 0 discriminator 4
 214 005c FFF7FEFF 		bl	UART_PutString
 215              	.LVL28:
 216 0060 3CE0     		b	.L13
 217              	.L15:
  49:main.c        ****             } else if (strcasecmp(cmd, "blink") == 0) {
 218              		.loc 1 49 0 is_stmt 1
 219 0062 2849     		ldr	r1, .L25+32
 220 0064 2046     		mov	r0, r4
 221 0066 FFF7FEFF 		bl	strcasecmp
 222              	.LVL29:
 223 006a C8B9     		cbnz	r0, .L17
  50:main.c        ****                 UART_PutString("\r\nBlinking LED...\r\n");
 224              		.loc 1 50 0
 225 006c 2648     		ldr	r0, .L25+36
 226 006e FFF7FEFF 		bl	UART_PutString
 227              	.LVL30:
 228              	.LBB4:
  51:main.c        ****                 for (int i = 0; i < 3; i++) {
 229              		.loc 1 51 0
 230 0072 0024     		movs	r4, #0
 231 0074 0EE0     		b	.L18
ARM GAS  C:\Users\karthik\AppData\Local\Temp\cckOEOg9.s 			page 6


 232              	.LVL31:
 233              	.L19:
  52:main.c        ****                     Pin_LED_Write(1);
 234              		.loc 1 52 0 discriminator 3
 235 0076 0120     		movs	r0, #1
 236 0078 FFF7FEFF 		bl	Pin_LED_Write
 237              	.LVL32:
  53:main.c        ****                     vTaskDelay(pdMS_TO_TICKS(300));
 238              		.loc 1 53 0 discriminator 3
 239 007c 4FF49670 		mov	r0, #300
 240 0080 FFF7FEFF 		bl	vTaskDelay
 241              	.LVL33:
  54:main.c        ****                     Pin_LED_Write(0);
 242              		.loc 1 54 0 discriminator 3
 243 0084 0020     		movs	r0, #0
 244 0086 FFF7FEFF 		bl	Pin_LED_Write
 245              	.LVL34:
  55:main.c        ****                     vTaskDelay(pdMS_TO_TICKS(300));
 246              		.loc 1 55 0 discriminator 3
 247 008a 4FF49670 		mov	r0, #300
 248 008e FFF7FEFF 		bl	vTaskDelay
 249              	.LVL35:
  51:main.c        ****                     Pin_LED_Write(1);
 250              		.loc 1 51 0 discriminator 3
 251 0092 0134     		adds	r4, r4, #1
 252              	.LVL36:
 253              	.L18:
  51:main.c        ****                     Pin_LED_Write(1);
 254              		.loc 1 51 0 is_stmt 0 discriminator 1
 255 0094 022C     		cmp	r4, #2
 256 0096 EEDD     		ble	.L19
 257              	.LBE4:
  56:main.c        ****                 }
  57:main.c        ****                 UART_PutString("\r\nDone blinking\r\n");
 258              		.loc 1 57 0 is_stmt 1
 259 0098 1C48     		ldr	r0, .L25+40
 260 009a FFF7FEFF 		bl	UART_PutString
 261              	.LVL37:
 262 009e 1DE0     		b	.L13
 263              	.LVL38:
 264              	.L17:
  58:main.c        ****             } else if (strcasecmp(cmd, "sleep") == 0) {
 265              		.loc 1 58 0
 266 00a0 1B49     		ldr	r1, .L25+44
 267 00a2 2046     		mov	r0, r4
 268 00a4 FFF7FEFF 		bl	strcasecmp
 269              	.LVL39:
 270 00a8 60B9     		cbnz	r0, .L20
  59:main.c        ****                 Pin_LED_Write(0);
 271              		.loc 1 59 0
 272 00aa FFF7FEFF 		bl	Pin_LED_Write
 273              	.LVL40:
  60:main.c        ****                 UART_PutString("\r\nSleeping for 5 seconds...\r\n");
 274              		.loc 1 60 0
 275 00ae 1948     		ldr	r0, .L25+48
 276 00b0 FFF7FEFF 		bl	UART_PutString
 277              	.LVL41:
ARM GAS  C:\Users\karthik\AppData\Local\Temp\cckOEOg9.s 			page 7


  61:main.c        ****                 vTaskDelay(pdMS_TO_TICKS(5000));
 278              		.loc 1 61 0
 279 00b4 41F28830 		movw	r0, #5000
 280 00b8 FFF7FEFF 		bl	vTaskDelay
 281              	.LVL42:
  62:main.c        ****                 UART_PutString("\r\nWoke up from sleep\r\n");
 282              		.loc 1 62 0
 283 00bc 1648     		ldr	r0, .L25+52
 284 00be FFF7FEFF 		bl	UART_PutString
 285              	.LVL43:
 286 00c2 0BE0     		b	.L13
 287              	.L20:
  63:main.c        ****             } else if (strcasecmp(cmd, "help") == 0) {
 288              		.loc 1 63 0
 289 00c4 1549     		ldr	r1, .L25+56
 290 00c6 2046     		mov	r0, r4
 291 00c8 FFF7FEFF 		bl	strcasecmp
 292              	.LVL44:
 293 00cc 18B9     		cbnz	r0, .L21
  64:main.c        ****                 UART_PutString(
 294              		.loc 1 64 0
 295 00ce 1448     		ldr	r0, .L25+60
 296 00d0 FFF7FEFF 		bl	UART_PutString
 297              	.LVL45:
 298 00d4 02E0     		b	.L13
 299              	.L21:
  65:main.c        ****                     "\r\nAvailable Commands:\r\n"
  66:main.c        ****                     "on     - Turn LED ON\r\n"
  67:main.c        ****                     "off    - Turn LED OFF\r\n"
  68:main.c        ****                     "status - Show LED state\r\n"
  69:main.c        ****                     "blink  - Blink LED 3 times\r\n"
  70:main.c        ****                     "sleep  - Pause for 5 seconds\r\n"
  71:main.c        ****                     "help   - Show this help message\r\n"
  72:main.c        ****                 );
  73:main.c        ****             } else {
  74:main.c        ****                 UART_PutString("\r\nInvalid command\r\n");
 300              		.loc 1 74 0
 301 00d6 1348     		ldr	r0, .L25+64
 302 00d8 FFF7FEFF 		bl	UART_PutString
 303              	.LVL46:
 304              	.L13:
  75:main.c        ****             }
  76:main.c        ****             vPortFree(cmd);
 305              		.loc 1 76 0
 306 00dc 0198     		ldr	r0, [sp, #4]
 307 00de FFF7FEFF 		bl	vPortFree
 308              	.LVL47:
 309 00e2 8FE7     		b	.L11
 310              	.L26:
 311              		.align	2
 312              	.L25:
 313 00e4 00000000 		.word	cmd_queue
 314 00e8 28000000 		.word	.LC3
 315 00ec 2C000000 		.word	.LC4
 316 00f0 40000000 		.word	.LC5
 317 00f4 44000000 		.word	.LC6
 318 00f8 58000000 		.word	.LC7
ARM GAS  C:\Users\karthik\AppData\Local\Temp\cckOEOg9.s 			page 8


 319 00fc 08000000 		.word	.LC1
 320 0100 18000000 		.word	.LC2
 321 0104 60000000 		.word	.LC8
 322 0108 68000000 		.word	.LC9
 323 010c 7C000000 		.word	.LC10
 324 0110 90000000 		.word	.LC11
 325 0114 98000000 		.word	.LC12
 326 0118 B8000000 		.word	.LC13
 327 011c D0000000 		.word	.LC14
 328 0120 D8000000 		.word	.LC15
 329 0124 94010000 		.word	.LC16
 330              		.cfi_endproc
 331              	.LFE70:
 332              		.size	led_task, .-led_task
 333              		.section	.text.main,"ax",%progbits
 334              		.align	2
 335              		.global	main
 336              		.thumb
 337              		.thumb_func
 338              		.type	main, %function
 339              	main:
 340              	.LFB71:
  77:main.c        ****         }
  78:main.c        ****     }
  79:main.c        **** }
  80:main.c        **** 
  81:main.c        **** int main(void) {
 341              		.loc 1 81 0
 342              		.cfi_startproc
 343              		@ Volatile: function does not return.
 344              		@ args = 0, pretend = 0, frame = 0
 345              		@ frame_needed = 0, uses_anonymous_args = 0
 346 0000 00B5     		push	{lr}
 347              		.cfi_def_cfa_offset 4
 348              		.cfi_offset 14, -4
 349 0002 83B0     		sub	sp, sp, #12
 350              		.cfi_def_cfa_offset 16
  82:main.c        ****     CyGlobalIntEnable;
 351              		.loc 1 82 0
 352              		.syntax unified
 353              	@ 82 "main.c" 1
 354 0004 62B6     		CPSIE   i
 355              	@ 0 "" 2
  83:main.c        ****     FreeRTOS_Start();
 356              		.loc 1 83 0
 357              		.thumb
 358              		.syntax unified
 359 0006 FFF7FEFF 		bl	FreeRTOS_Start
 360              	.LVL48:
  84:main.c        ****     UART_Start();
 361              		.loc 1 84 0
 362 000a FFF7FEFF 		bl	UART_Start
 363              	.LVL49:
  85:main.c        ****     UART_ClearTxBuffer();
 364              		.loc 1 85 0
 365 000e FFF7FEFF 		bl	UART_ClearTxBuffer
 366              	.LVL50:
ARM GAS  C:\Users\karthik\AppData\Local\Temp\cckOEOg9.s 			page 9


  86:main.c        ****     cmd_queue = xQueueCreate(5, sizeof(char *));
 367              		.loc 1 86 0
 368 0012 0022     		movs	r2, #0
 369 0014 0421     		movs	r1, #4
 370 0016 0520     		movs	r0, #5
 371 0018 FFF7FEFF 		bl	xQueueGenericCreate
 372              	.LVL51:
 373 001c 104C     		ldr	r4, .L32
 374 001e 2060     		str	r0, [r4]
  87:main.c        ****     UART_PutString("Enter on/off/status/blink/sleep/help to control the LED\r\n> ");
 375              		.loc 1 87 0
 376 0020 1048     		ldr	r0, .L32+4
 377 0022 FFF7FEFF 		bl	UART_PutString
 378              	.LVL52:
  88:main.c        ****     if(cmd_queue == NULL) {
 379              		.loc 1 88 0
 380 0026 2368     		ldr	r3, [r4]
 381 0028 1BB9     		cbnz	r3, .L28
  89:main.c        ****         UART_PutString("Failed to create queue\r\n");
 382              		.loc 1 89 0
 383 002a 0F48     		ldr	r0, .L32+8
 384 002c FFF7FEFF 		bl	UART_PutString
 385              	.LVL53:
 386              	.L29:
 387 0030 FEE7     		b	.L29
 388              	.L28:
  90:main.c        ****         while(1);
  91:main.c        ****     }
  92:main.c        ****     xTaskCreate(uart_input_task, "UART Task", 200, NULL, 3, NULL);
 389              		.loc 1 92 0
 390 0032 0024     		movs	r4, #0
 391 0034 0194     		str	r4, [sp, #4]
 392 0036 0323     		movs	r3, #3
 393 0038 0093     		str	r3, [sp]
 394 003a 2346     		mov	r3, r4
 395 003c C822     		movs	r2, #200
 396 003e 0B49     		ldr	r1, .L32+12
 397 0040 0B48     		ldr	r0, .L32+16
 398 0042 FFF7FEFF 		bl	xTaskCreate
 399              	.LVL54:
  93:main.c        ****     xTaskCreate(led_task, "LED Task", 200, NULL, 2, NULL);
 400              		.loc 1 93 0
 401 0046 0194     		str	r4, [sp, #4]
 402 0048 0223     		movs	r3, #2
 403 004a 0093     		str	r3, [sp]
 404 004c 2346     		mov	r3, r4
 405 004e C822     		movs	r2, #200
 406 0050 0849     		ldr	r1, .L32+20
 407 0052 0948     		ldr	r0, .L32+24
 408 0054 FFF7FEFF 		bl	xTaskCreate
 409              	.LVL55:
  94:main.c        ****     vTaskStartScheduler();
 410              		.loc 1 94 0
 411 0058 FFF7FEFF 		bl	vTaskStartScheduler
 412              	.LVL56:
 413              	.L30:
 414 005c FEE7     		b	.L30
ARM GAS  C:\Users\karthik\AppData\Local\Temp\cckOEOg9.s 			page 10


 415              	.L33:
 416 005e 00BF     		.align	2
 417              	.L32:
 418 0060 00000000 		.word	cmd_queue
 419 0064 A8010000 		.word	.LC17
 420 0068 E4010000 		.word	.LC18
 421 006c 00020000 		.word	.LC19
 422 0070 00000000 		.word	uart_input_task
 423 0074 0C020000 		.word	.LC20
 424 0078 00000000 		.word	led_task
 425              		.cfi_endproc
 426              	.LFE71:
 427              		.size	main, .-main
 428              		.comm	cmd_queue,4,4
 429              		.section	.rodata.str1.4,"aMS",%progbits,1
 430              		.align	2
 431              	.LC0:
 432 0000 0D0A3E20 		.ascii	"\015\012> \000"
 432      00
 433 0005 000000   		.space	3
 434              	.LC1:
 435 0008 0D0A4C45 		.ascii	"\015\012LED is ON\015\012\000"
 435      44206973 
 435      204F4E0D 
 435      0A00
 436 0016 0000     		.space	2
 437              	.LC2:
 438 0018 0D0A4C45 		.ascii	"\015\012LED is OFF\015\012\000"
 438      44206973 
 438      204F4646 
 438      0D0A00
 439 0027 00       		.space	1
 440              	.LC3:
 441 0028 6F6E00   		.ascii	"on\000"
 442 002b 00       		.space	1
 443              	.LC4:
 444 002c 0D0A4C45 		.ascii	"\015\012LED turned ON\015\012\000"
 444      44207475 
 444      726E6564 
 444      204F4E0D 
 444      0A00
 445 003e 0000     		.space	2
 446              	.LC5:
 447 0040 6F666600 		.ascii	"off\000"
 448              	.LC6:
 449 0044 0D0A4C45 		.ascii	"\015\012LED turned OFF\015\012\000"
 449      44207475 
 449      726E6564 
 449      204F4646 
 449      0D0A00
 450 0057 00       		.space	1
 451              	.LC7:
 452 0058 73746174 		.ascii	"status\000"
 452      757300
 453 005f 00       		.space	1
 454              	.LC8:
 455 0060 626C696E 		.ascii	"blink\000"
ARM GAS  C:\Users\karthik\AppData\Local\Temp\cckOEOg9.s 			page 11


 455      6B00
 456 0066 0000     		.space	2
 457              	.LC9:
 458 0068 0D0A426C 		.ascii	"\015\012Blinking LED...\015\012\000"
 458      696E6B69 
 458      6E67204C 
 458      45442E2E 
 458      2E0D0A00 
 459              	.LC10:
 460 007c 0D0A446F 		.ascii	"\015\012Done blinking\015\012\000"
 460      6E652062 
 460      6C696E6B 
 460      696E670D 
 460      0A00
 461 008e 0000     		.space	2
 462              	.LC11:
 463 0090 736C6565 		.ascii	"sleep\000"
 463      7000
 464 0096 0000     		.space	2
 465              	.LC12:
 466 0098 0D0A536C 		.ascii	"\015\012Sleeping for 5 seconds...\015\012\000"
 466      65657069 
 466      6E672066 
 466      6F722035 
 466      20736563 
 467 00b6 0000     		.space	2
 468              	.LC13:
 469 00b8 0D0A576F 		.ascii	"\015\012Woke up from sleep\015\012\000"
 469      6B652075 
 469      70206672 
 469      6F6D2073 
 469      6C656570 
 470 00cf 00       		.space	1
 471              	.LC14:
 472 00d0 68656C70 		.ascii	"help\000"
 472      00
 473 00d5 000000   		.space	3
 474              	.LC15:
 475 00d8 0D0A4176 		.ascii	"\015\012Available Commands:\015\012on     - Turn LE"
 475      61696C61 
 475      626C6520 
 475      436F6D6D 
 475      616E6473 
 476 00ff 44204F4E 		.ascii	"D ON\015\012off    - Turn LED OFF\015\012status - S"
 476      0D0A6F66 
 476      66202020 
 476      202D2054 
 476      75726E20 
 477 0126 686F7720 		.ascii	"how LED state\015\012blink  - Blink LED 3 times\015"
 477      4C454420 
 477      73746174 
 477      650D0A62 
 477      6C696E6B 
 478 0150 0A736C65 		.ascii	"\012sleep  - Pause for 5 seconds\015\012help   - Sh"
 478      65702020 
 478      2D205061 
 478      75736520 
ARM GAS  C:\Users\karthik\AppData\Local\Temp\cckOEOg9.s 			page 12


 478      666F7220 
 479 017a 6F772074 		.ascii	"ow this help message\015\012\000"
 479      68697320 
 479      68656C70 
 479      206D6573 
 479      73616765 
 480 0191 000000   		.space	3
 481              	.LC16:
 482 0194 0D0A496E 		.ascii	"\015\012Invalid command\015\012\000"
 482      76616C69 
 482      6420636F 
 482      6D6D616E 
 482      640D0A00 
 483              	.LC17:
 484 01a8 456E7465 		.ascii	"Enter on/off/status/blink/sleep/help to control the"
 484      72206F6E 
 484      2F6F6666 
 484      2F737461 
 484      7475732F 
 485 01db 204C4544 		.ascii	" LED\015\012> \000"
 485      0D0A3E20 
 485      00
 486              	.LC18:
 487 01e4 4661696C 		.ascii	"Failed to create queue\015\012\000"
 487      65642074 
 487      6F206372 
 487      65617465 
 487      20717565 
 488 01fd 000000   		.space	3
 489              	.LC19:
 490 0200 55415254 		.ascii	"UART Task\000"
 490      20546173 
 490      6B00
 491 020a 0000     		.space	2
 492              	.LC20:
 493 020c 4C454420 		.ascii	"LED Task\000"
 493      5461736B 
 493      00
 494              		.text
 495              	.Letext0:
 496              		.file 2 "c:\\program files (x86)\\cypress\\psoc creator\\4.4\\psoc creator\\import\\gnu\\arm\\5.4.
 497              		.file 3 "c:\\program files (x86)\\cypress\\psoc creator\\4.4\\psoc creator\\import\\gnu\\arm\\5.4.
 498              		.file 4 "..\\FreeRTOS\\Source\\portable\\GCC\\ARM_CM3/portmacro.h"
 499              		.file 5 "..\\FreeRTOS\\Source\\include/queue.h"
 500              		.file 6 "Generated_Source\\PSoC5/core_cm3.h"
 501              		.file 7 "c:\\program files (x86)\\cypress\\psoc creator\\4.4\\psoc creator\\import\\gnu\\arm\\5.4.
 502              		.file 8 "..\\FreeRTOS\\Source\\include/portable.h"
 503              		.file 9 "Generated_Source\\PSoC5/UART.h"
 504              		.file 10 "..\\FreeRTOS\\Source\\include/task.h"
 505              		.file 11 "Generated_Source\\PSoC5/Pin_LED.h"