ARM GAS  C:\Users\karthik\AppData\Local\Temp\ccRIiLGZ.s 			page 1


   1              		.syntax unified
   2              		.cpu cortex-m3
   3              		.fpu softvfp
   4              		.eabi_attribute 20, 1
   5              		.eabi_attribute 21, 1
   6              		.eabi_attribute 23, 3
   7              		.eabi_attribute 24, 1
   8              		.eabi_attribute 25, 1
   9              		.eabi_attribute 26, 1
  10              		.eabi_attribute 30, 1
  11              		.eabi_attribute 34, 1
  12              		.eabi_attribute 18, 4
  13              		.thumb
  14              		.syntax unified
  15              		.file	"main.c"
  16              		.text
  17              	.Ltext0:
  18              		.cfi_sections	.debug_frame
  19              		.section	.text.task1,"ax",%progbits
  20              		.align	2
  21              		.global	task1
  22              		.thumb
  23              		.thumb_func
  24              		.type	task1, %function
  25              	task1:
  26              	.LFB69:
  27              		.file 1 "main.c"
   1:main.c        **** #include <stdio.h>
   2:main.c        **** #include <stdlib.h>
   3:main.c        **** #include <string.h>
   4:main.c        **** #include "project.h"
   5:main.c        **** #include "FreeRTOS.h"
   6:main.c        **** #include "task.h"
   7:main.c        **** #include "semphr.h"
   8:main.c        **** 
   9:main.c        **** extern void FreeRTOS_Start();
  10:main.c        **** 
  11:main.c        **** SemaphoreHandle_t uart_mutex;
  12:main.c        **** 
  13:main.c        **** void task1(void *ptr) {
  28              		.loc 1 13 0
  29              		.cfi_startproc
  30              		@ Volatile: function does not return.
  31              		@ args = 0, pretend = 0, frame = 0
  32              		@ frame_needed = 0, uses_anonymous_args = 0
  33              	.LVL0:
  34 0000 08B5     		push	{r3, lr}
  35              		.cfi_def_cfa_offset 8
  36              		.cfi_offset 3, -8
  37              		.cfi_offset 14, -4
  38              	.LVL1:
  39              	.L4:
  14:main.c        ****     for(;;) {
  15:main.c        ****         if (xSemaphoreTake(uart_mutex, portMAX_DELAY) == pdTRUE) {
  40              		.loc 1 15 0
  41 0002 4FF0FF31 		mov	r1, #-1
  42 0006 124B     		ldr	r3, .L7
ARM GAS  C:\Users\karthik\AppData\Local\Temp\ccRIiLGZ.s 			page 2


  43 0008 1868     		ldr	r0, [r3]
  44 000a FFF7FEFF 		bl	xQueueSemaphoreTake
  45              	.LVL2:
  46 000e 0128     		cmp	r0, #1
  47 0010 18D1     		bne	.L2
  16:main.c        ****             Pin_LED_Write(!Pin_LED_Read());
  48              		.loc 1 16 0
  49 0012 FFF7FEFF 		bl	Pin_LED_Read
  50              	.LVL3:
  51 0016 B0FA80F0 		clz	r0, r0
  52 001a 4009     		lsrs	r0, r0, #5
  53 001c FFF7FEFF 		bl	Pin_LED_Write
  54              	.LVL4:
  17:main.c        ****             UART_PutString("Task 1: LED ");
  55              		.loc 1 17 0
  56 0020 0C48     		ldr	r0, .L7+4
  57 0022 FFF7FEFF 		bl	UART_PutString
  58              	.LVL5:
  18:main.c        ****             UART_PutString(Pin_LED_Read() ? "ON\r\n" : "OFF\r\n");
  59              		.loc 1 18 0
  60 0026 FFF7FEFF 		bl	Pin_LED_Read
  61              	.LVL6:
  62 002a 08B1     		cbz	r0, .L5
  63 002c 0A48     		ldr	r0, .L7+8
  64 002e 00E0     		b	.L3
  65              	.L5:
  66 0030 0A48     		ldr	r0, .L7+12
  67              	.L3:
  68              		.loc 1 18 0 is_stmt 0 discriminator 4
  69 0032 FFF7FEFF 		bl	UART_PutString
  70              	.LVL7:
  19:main.c        ****             xSemaphoreGive(uart_mutex);
  71              		.loc 1 19 0 is_stmt 1 discriminator 4
  72 0036 0023     		movs	r3, #0
  73 0038 1A46     		mov	r2, r3
  74 003a 1946     		mov	r1, r3
  75 003c 0448     		ldr	r0, .L7
  76 003e 0068     		ldr	r0, [r0]
  77 0040 FFF7FEFF 		bl	xQueueGenericSend
  78              	.LVL8:
  79              	.L2:
  20:main.c        ****         }
  21:main.c        ****         vTaskDelay(500);
  80              		.loc 1 21 0
  81 0044 4FF4FA70 		mov	r0, #500
  82 0048 FFF7FEFF 		bl	vTaskDelay
  83              	.LVL9:
  22:main.c        ****     }
  84              		.loc 1 22 0
  85 004c D9E7     		b	.L4
  86              	.L8:
  87 004e 00BF     		.align	2
  88              	.L7:
  89 0050 00000000 		.word	uart_mutex
  90 0054 10000000 		.word	.LC2
  91 0058 00000000 		.word	.LC0
  92 005c 08000000 		.word	.LC1
ARM GAS  C:\Users\karthik\AppData\Local\Temp\ccRIiLGZ.s 			page 3


  93              		.cfi_endproc
  94              	.LFE69:
  95              		.size	task1, .-task1
  96              		.section	.text.task2,"ax",%progbits
  97              		.align	2
  98              		.global	task2
  99              		.thumb
 100              		.thumb_func
 101              		.type	task2, %function
 102              	task2:
 103              	.LFB70:
  23:main.c        **** }
  24:main.c        **** 
  25:main.c        **** void task2(void *ptr) {
 104              		.loc 1 25 0
 105              		.cfi_startproc
 106              		@ Volatile: function does not return.
 107              		@ args = 0, pretend = 0, frame = 0
 108              		@ frame_needed = 0, uses_anonymous_args = 0
 109              	.LVL10:
 110 0000 08B5     		push	{r3, lr}
 111              		.cfi_def_cfa_offset 8
 112              		.cfi_offset 3, -8
 113              		.cfi_offset 14, -4
 114              	.LVL11:
 115              	.L12:
  26:main.c        ****     for(;;) {
  27:main.c        ****         if (xSemaphoreTake(uart_mutex, portMAX_DELAY) == pdTRUE) {
 116              		.loc 1 27 0
 117 0002 4FF0FF31 		mov	r1, #-1
 118 0006 124B     		ldr	r3, .L15
 119 0008 1868     		ldr	r0, [r3]
 120 000a FFF7FEFF 		bl	xQueueSemaphoreTake
 121              	.LVL12:
 122 000e 0128     		cmp	r0, #1
 123 0010 18D1     		bne	.L10
  28:main.c        ****             Pin_LED_Write(!Pin_LED_Read());
 124              		.loc 1 28 0
 125 0012 FFF7FEFF 		bl	Pin_LED_Read
 126              	.LVL13:
 127 0016 B0FA80F0 		clz	r0, r0
 128 001a 4009     		lsrs	r0, r0, #5
 129 001c FFF7FEFF 		bl	Pin_LED_Write
 130              	.LVL14:
  29:main.c        ****             UART_PutString("Task 2: LED ");
 131              		.loc 1 29 0
 132 0020 0C48     		ldr	r0, .L15+4
 133 0022 FFF7FEFF 		bl	UART_PutString
 134              	.LVL15:
  30:main.c        ****             UART_PutString(Pin_LED_Read() ? "ON\r\n" : "OFF\r\n");
 135              		.loc 1 30 0
 136 0026 FFF7FEFF 		bl	Pin_LED_Read
 137              	.LVL16:
 138 002a 08B1     		cbz	r0, .L13
 139 002c 0A48     		ldr	r0, .L15+8
 140 002e 00E0     		b	.L11
 141              	.L13:
ARM GAS  C:\Users\karthik\AppData\Local\Temp\ccRIiLGZ.s 			page 4


 142 0030 0A48     		ldr	r0, .L15+12
 143              	.L11:
 144              		.loc 1 30 0 is_stmt 0 discriminator 4
 145 0032 FFF7FEFF 		bl	UART_PutString
 146              	.LVL17:
  31:main.c        ****             xSemaphoreGive(uart_mutex);
 147              		.loc 1 31 0 is_stmt 1 discriminator 4
 148 0036 0023     		movs	r3, #0
 149 0038 1A46     		mov	r2, r3
 150 003a 1946     		mov	r1, r3
 151 003c 0448     		ldr	r0, .L15
 152 003e 0068     		ldr	r0, [r0]
 153 0040 FFF7FEFF 		bl	xQueueGenericSend
 154              	.LVL18:
 155              	.L10:
  32:main.c        ****         }
  33:main.c        ****         vTaskDelay(750);
 156              		.loc 1 33 0
 157 0044 40F2EE20 		movw	r0, #750
 158 0048 FFF7FEFF 		bl	vTaskDelay
 159              	.LVL19:
  34:main.c        ****     }
 160              		.loc 1 34 0
 161 004c D9E7     		b	.L12
 162              	.L16:
 163 004e 00BF     		.align	2
 164              	.L15:
 165 0050 00000000 		.word	uart_mutex
 166 0054 20000000 		.word	.LC3
 167 0058 00000000 		.word	.LC0
 168 005c 08000000 		.word	.LC1
 169              		.cfi_endproc
 170              	.LFE70:
 171              		.size	task2, .-task2
 172              		.section	.text.main,"ax",%progbits
 173              		.align	2
 174              		.global	main
 175              		.thumb
 176              		.thumb_func
 177              		.type	main, %function
 178              	main:
 179              	.LFB71:
  35:main.c        **** }
  36:main.c        **** 
  37:main.c        **** int main(void) {
 180              		.loc 1 37 0
 181              		.cfi_startproc
 182              		@ Volatile: function does not return.
 183              		@ args = 0, pretend = 0, frame = 0
 184              		@ frame_needed = 0, uses_anonymous_args = 0
 185 0000 00B5     		push	{lr}
 186              		.cfi_def_cfa_offset 4
 187              		.cfi_offset 14, -4
 188 0002 83B0     		sub	sp, sp, #12
 189              		.cfi_def_cfa_offset 16
  38:main.c        ****     CyGlobalIntEnable;
 190              		.loc 1 38 0
ARM GAS  C:\Users\karthik\AppData\Local\Temp\ccRIiLGZ.s 			page 5


 191              		.syntax unified
 192              	@ 38 "main.c" 1
 193 0004 62B6     		CPSIE   i
 194              	@ 0 "" 2
  39:main.c        ****     FreeRTOS_Start();
 195              		.loc 1 39 0
 196              		.thumb
 197              		.syntax unified
 198 0006 FFF7FEFF 		bl	FreeRTOS_Start
 199              	.LVL20:
  40:main.c        ****     UART_Start();
 200              		.loc 1 40 0
 201 000a FFF7FEFF 		bl	UART_Start
 202              	.LVL21:
  41:main.c        ****     UART_ClearTxBuffer();
 203              		.loc 1 41 0
 204 000e FFF7FEFF 		bl	UART_ClearTxBuffer
 205              	.LVL22:
  42:main.c        ****     uart_mutex = xSemaphoreCreateMutex();
 206              		.loc 1 42 0
 207 0012 0120     		movs	r0, #1
 208 0014 FFF7FEFF 		bl	xQueueCreateMutex
 209              	.LVL23:
 210 0018 0D4B     		ldr	r3, .L22
 211 001a 1860     		str	r0, [r3]
  43:main.c        ****     if(uart_mutex == NULL) {
 212              		.loc 1 43 0
 213 001c 18B9     		cbnz	r0, .L18
  44:main.c        ****         UART_PutString("Failed to create mutex\r\n");
 214              		.loc 1 44 0
 215 001e 0D48     		ldr	r0, .L22+4
 216 0020 FFF7FEFF 		bl	UART_PutString
 217              	.LVL24:
 218              	.L19:
 219 0024 FEE7     		b	.L19
 220              	.L18:
  45:main.c        ****         while(1);
  46:main.c        ****     }
  47:main.c        ****     xTaskCreate(task1, "Task 1", 200, NULL, 2, NULL);
 221              		.loc 1 47 0
 222 0026 0024     		movs	r4, #0
 223 0028 0194     		str	r4, [sp, #4]
 224 002a 0225     		movs	r5, #2
 225 002c 0095     		str	r5, [sp]
 226 002e 2346     		mov	r3, r4
 227 0030 C822     		movs	r2, #200
 228 0032 0949     		ldr	r1, .L22+8
 229 0034 0948     		ldr	r0, .L22+12
 230 0036 FFF7FEFF 		bl	xTaskCreate
 231              	.LVL25:
  48:main.c        ****     xTaskCreate(task2, "Task 2", 200, NULL, 2, NULL);
 232              		.loc 1 48 0
 233 003a 0194     		str	r4, [sp, #4]
 234 003c 0095     		str	r5, [sp]
 235 003e 2346     		mov	r3, r4
 236 0040 C822     		movs	r2, #200
 237 0042 0749     		ldr	r1, .L22+16
ARM GAS  C:\Users\karthik\AppData\Local\Temp\ccRIiLGZ.s 			page 6


 238 0044 0748     		ldr	r0, .L22+20
 239 0046 FFF7FEFF 		bl	xTaskCreate
 240              	.LVL26:
  49:main.c        ****     vTaskStartScheduler();
 241              		.loc 1 49 0
 242 004a FFF7FEFF 		bl	vTaskStartScheduler
 243              	.LVL27:
 244              	.L20:
 245 004e FEE7     		b	.L20
 246              	.L23:
 247              		.align	2
 248              	.L22:
 249 0050 00000000 		.word	uart_mutex
 250 0054 30000000 		.word	.LC4
 251 0058 4C000000 		.word	.LC5
 252 005c 00000000 		.word	task1
 253 0060 54000000 		.word	.LC6
 254 0064 00000000 		.word	task2
 255              		.cfi_endproc
 256              	.LFE71:
 257              		.size	main, .-main
 258              		.comm	uart_mutex,4,4
 259              		.section	.rodata.str1.4,"aMS",%progbits,1
 260              		.align	2
 261              	.LC0:
 262 0000 4F4E0D0A 		.ascii	"ON\015\012\000"
 262      00
 263 0005 000000   		.space	3
 264              	.LC1:
 265 0008 4F46460D 		.ascii	"OFF\015\012\000"
 265      0A00
 266 000e 0000     		.space	2
 267              	.LC2:
 268 0010 5461736B 		.ascii	"Task 1: LED \000"
 268      20313A20 
 268      4C454420 
 268      00
 269 001d 000000   		.space	3
 270              	.LC3:
 271 0020 5461736B 		.ascii	"Task 2: LED \000"
 271      20323A20 
 271      4C454420 
 271      00
 272 002d 000000   		.space	3
 273              	.LC4:
 274 0030 4661696C 		.ascii	"Failed to create mutex\015\012\000"
 274      65642074 
 274      6F206372 
 274      65617465 
 274      206D7574 
 275 0049 000000   		.space	3
 276              	.LC5:
 277 004c 5461736B 		.ascii	"Task 1\000"
 277      203100
 278 0053 00       		.space	1
 279              	.LC6:
 280 0054 5461736B 		.ascii	"Task 2\000"
ARM GAS  C:\Users\karthik\AppData\Local\Temp\ccRIiLGZ.s 			page 7


 280      203200
 281              		.text
 282              	.Letext0:
 283              		.file 2 "c:\\program files (x86)\\cypress\\psoc creator\\4.4\\psoc creator\\import\\gnu\\arm\\5.4.
 284              		.file 3 "c:\\program files (x86)\\cypress\\psoc creator\\4.4\\psoc creator\\import\\gnu\\arm\\5.4.
 285              		.file 4 "..\\FreeRTOS\\Source\\portable\\GCC\\ARM_CM3/portmacro.h"
 286              		.file 5 "..\\FreeRTOS\\Source\\include/queue.h"
 287              		.file 6 "..\\FreeRTOS\\Source\\include/semphr.h"
 288              		.file 7 "Generated_Source\\PSoC5/core_cm3.h"
 289              		.file 8 "Generated_Source\\PSoC5/Pin_LED.h"
 290              		.file 9 "Generated_Source\\PSoC5/UART.h"
 291              		.file 10 "..\\FreeRTOS\\Source\\include/task.h"