ARM GAS  C:\Users\karthik\AppData\Local\Temp\cccyGiac.s 			page 1


   1              		.syntax unified
   2              		.cpu cortex-m3
   3              		.fpu softvfp
   4              		.eabi_attribute 20, 1
   5              		.eabi_attribute 21, 1
   6              		.eabi_attribute 23, 3
   7              		.eabi_attribute 24, 1
   8              		.eabi_attribute 25, 1
   9              		.eabi_attribute 26, 1
  10              		.eabi_attribute 30, 1
  11              		.eabi_attribute 34, 1
  12              		.eabi_attribute 18, 4
  13              		.thumb
  14              		.syntax unified
  15              		.file	"main.c"
  16              		.text
  17              	.Ltext0:
  18              		.cfi_sections	.debug_frame
  19              		.section	.text.addNumbers,"ax",%progbits
  20              		.align	2
  21              		.global	addNumbers
  22              		.thumb
  23              		.thumb_func
  24              		.type	addNumbers, %function
  25              	addNumbers:
  26              	.LFB64:
  27              		.file 1 "main.c"
   1:main.c        **** #include <project.h>
   2:main.c        **** #include <stdio.h>
   3:main.c        **** 
   4:main.c        **** int addNumbers(int a, int b) {
  28              		.loc 1 4 0
  29              		.cfi_startproc
  30              		@ args = 0, pretend = 0, frame = 0
  31              		@ frame_needed = 0, uses_anonymous_args = 0
  32              		@ link register save eliminated.
  33              	.LVL0:
   5:main.c        ****     return a + b;
   6:main.c        **** }
  34              		.loc 1 6 0
  35 0000 0844     		add	r0, r0, r1
  36              	.LVL1:
  37 0002 7047     		bx	lr
  38              		.cfi_endproc
  39              	.LFE64:
  40              		.size	addNumbers, .-addNumbers
  41              		.section	.text.UART_ReadLine,"ax",%progbits
  42              		.align	2
  43              		.global	UART_ReadLine
  44              		.thumb
  45              		.thumb_func
  46              		.type	UART_ReadLine, %function
  47              	UART_ReadLine:
  48              	.LFB65:
   7:main.c        **** 
   8:main.c        **** void UART_ReadLine(char *buffer, int maxSize) {
  49              		.loc 1 8 0
ARM GAS  C:\Users\karthik\AppData\Local\Temp\cccyGiac.s 			page 2


  50              		.cfi_startproc
  51              		@ args = 0, pretend = 0, frame = 0
  52              		@ frame_needed = 0, uses_anonymous_args = 0
  53              	.LVL2:
  54 0000 F8B5     		push	{r3, r4, r5, r6, r7, lr}
  55              		.cfi_def_cfa_offset 24
  56              		.cfi_offset 3, -24
  57              		.cfi_offset 4, -20
  58              		.cfi_offset 5, -16
  59              		.cfi_offset 6, -12
  60              		.cfi_offset 7, -8
  61              		.cfi_offset 14, -4
  62 0002 0646     		mov	r6, r0
  63 0004 0F46     		mov	r7, r1
  64              	.LVL3:
   9:main.c        ****     int i = 0;
  65              		.loc 1 9 0
  66 0006 0023     		movs	r3, #0
  67              	.LVL4:
  68              	.L7:
  69 0008 1D46     		mov	r5, r3
  70              	.L3:
  71              	.LVL5:
  10:main.c        ****     char ch;
  11:main.c        ****     
  12:main.c        ****     while (1) {
  13:main.c        ****         if (UART_GetRxBufferSize() > 0) {
  72              		.loc 1 13 0
  73 000a FFF7FEFF 		bl	UART_GetRxBufferSize
  74              	.LVL6:
  75 000e 0028     		cmp	r0, #0
  76 0010 FBD0     		beq	.L3
  14:main.c        ****             ch = UART_GetChar();
  77              		.loc 1 14 0
  78 0012 FFF7FEFF 		bl	UART_GetChar
  79              	.LVL7:
  80 0016 0446     		mov	r4, r0
  81              	.LVL8:
  15:main.c        ****             if (ch == '\r' || ch == '\n') {
  82              		.loc 1 15 0
  83 0018 0D28     		cmp	r0, #13
  84 001a 01D0     		beq	.L4
  85              		.loc 1 15 0 is_stmt 0 discriminator 1
  86 001c 0A28     		cmp	r0, #10
  87 001e 05D1     		bne	.L5
  88              	.L4:
  16:main.c        ****                 buffer[i] = '\0';
  89              		.loc 1 16 0 is_stmt 1
  90 0020 0023     		movs	r3, #0
  91 0022 7355     		strb	r3, [r6, r5]
  17:main.c        ****                 UART_PutString("\r\n");
  92              		.loc 1 17 0
  93 0024 0548     		ldr	r0, .L9
  94              	.LVL9:
  95 0026 FFF7FEFF 		bl	UART_PutString
  96              	.LVL10:
  18:main.c        ****                 break;
ARM GAS  C:\Users\karthik\AppData\Local\Temp\cccyGiac.s 			page 3


  97              		.loc 1 18 0
  98 002a F8BD     		pop	{r3, r4, r5, r6, r7, pc}
  99              	.LVL11:
 100              	.L5:
  19:main.c        ****             }
  20:main.c        ****             UART_PutChar(ch);
 101              		.loc 1 20 0
 102 002c FFF7FEFF 		bl	UART_PutChar
 103              	.LVL12:
  21:main.c        ****             buffer[i++] = ch;
 104              		.loc 1 21 0
 105 0030 6B1C     		adds	r3, r5, #1
 106              	.LVL13:
 107 0032 7455     		strb	r4, [r6, r5]
  22:main.c        ****             if (i >= maxSize - 1) break;
 108              		.loc 1 22 0
 109 0034 7A1E     		subs	r2, r7, #1
 110 0036 9342     		cmp	r3, r2
 111 0038 E6DB     		blt	.L7
 112 003a F8BD     		pop	{r3, r4, r5, r6, r7, pc}
 113              	.LVL14:
 114              	.L10:
 115              		.align	2
 116              	.L9:
 117 003c 00000000 		.word	.LC0
 118              		.cfi_endproc
 119              	.LFE65:
 120              		.size	UART_ReadLine, .-UART_ReadLine
 121              		.section	.text.main,"ax",%progbits
 122              		.align	2
 123              		.global	main
 124              		.thumb
 125              		.thumb_func
 126              		.type	main, %function
 127              	main:
 128              	.LFB66:
  23:main.c        ****         }
  24:main.c        ****     }
  25:main.c        **** }
  26:main.c        **** 
  27:main.c        **** int main() {
 129              		.loc 1 27 0
 130              		.cfi_startproc
 131              		@ args = 0, pretend = 0, frame = 64
 132              		@ frame_needed = 0, uses_anonymous_args = 0
 133 0000 00B5     		push	{lr}
 134              		.cfi_def_cfa_offset 4
 135              		.cfi_offset 14, -4
 136 0002 91B0     		sub	sp, sp, #68
 137              		.cfi_def_cfa_offset 72
  28:main.c        ****     CyGlobalIntEnable;
 138              		.loc 1 28 0
 139              		.syntax unified
 140              	@ 28 "main.c" 1
 141 0004 62B6     		CPSIE   i
 142              	@ 0 "" 2
  29:main.c        ****     UART_Start();
ARM GAS  C:\Users\karthik\AppData\Local\Temp\cccyGiac.s 			page 4


 143              		.loc 1 29 0
 144              		.thumb
 145              		.syntax unified
 146 0006 FFF7FEFF 		bl	UART_Start
 147              	.LVL15:
  30:main.c        **** 
  31:main.c        ****     int num1 = 0, num2 = 0, sum = 0;
 148              		.loc 1 31 0
 149 000a 0023     		movs	r3, #0
 150 000c 0F93     		str	r3, [sp, #60]
 151 000e 0E93     		str	r3, [sp, #56]
 152              	.LVL16:
  32:main.c        ****     char buffer[50];
  33:main.c        **** 
  34:main.c        ****     UART_PutString("Press 'q' to quit at any time.\r\n\r\n");
 153              		.loc 1 34 0
 154 0010 1D48     		ldr	r0, .L15
 155 0012 FFF7FEFF 		bl	UART_PutString
 156              	.LVL17:
 157              	.L13:
  35:main.c        **** 
  36:main.c        ****     while (1) {
  37:main.c        ****         UART_PutString("Enter first number: ");
 158              		.loc 1 37 0
 159 0016 1D48     		ldr	r0, .L15+4
 160 0018 FFF7FEFF 		bl	UART_PutString
 161              	.LVL18:
  38:main.c        ****         UART_ReadLine(buffer, sizeof(buffer));
 162              		.loc 1 38 0
 163 001c 3221     		movs	r1, #50
 164 001e 01A8     		add	r0, sp, #4
 165 0020 FFF7FEFF 		bl	UART_ReadLine
 166              	.LVL19:
  39:main.c        ****         if (buffer[0] == 'q' || buffer[0] == 'Q') break;
 167              		.loc 1 39 0
 168 0024 9DF80430 		ldrb	r3, [sp, #4]	@ zero_extendqisi2
 169 0028 712B     		cmp	r3, #113
 170 002a 25D0     		beq	.L12
 171              		.loc 1 39 0 is_stmt 0 discriminator 1
 172 002c 512B     		cmp	r3, #81
 173 002e 23D0     		beq	.L12
  40:main.c        ****         sscanf(buffer, "%d", &num1);
 174              		.loc 1 40 0 is_stmt 1
 175 0030 0FAA     		add	r2, sp, #60
 176 0032 1749     		ldr	r1, .L15+8
 177 0034 01A8     		add	r0, sp, #4
 178 0036 FFF7FEFF 		bl	sscanf
 179              	.LVL20:
  41:main.c        **** 
  42:main.c        ****         UART_PutString("Enter second number: ");
 180              		.loc 1 42 0
 181 003a 1648     		ldr	r0, .L15+12
 182 003c FFF7FEFF 		bl	UART_PutString
 183              	.LVL21:
  43:main.c        ****         UART_ReadLine(buffer, sizeof(buffer));
 184              		.loc 1 43 0
 185 0040 3221     		movs	r1, #50
ARM GAS  C:\Users\karthik\AppData\Local\Temp\cccyGiac.s 			page 5


 186 0042 01A8     		add	r0, sp, #4
 187 0044 FFF7FEFF 		bl	UART_ReadLine
 188              	.LVL22:
  44:main.c        ****         if (buffer[0] == 'q' || buffer[0] == 'Q') break;
 189              		.loc 1 44 0
 190 0048 9DF80430 		ldrb	r3, [sp, #4]	@ zero_extendqisi2
 191 004c 712B     		cmp	r3, #113
 192 004e 13D0     		beq	.L12
 193              		.loc 1 44 0 is_stmt 0 discriminator 1
 194 0050 512B     		cmp	r3, #81
 195 0052 11D0     		beq	.L12
  45:main.c        ****         sscanf(buffer, "%d", &num2);
 196              		.loc 1 45 0 is_stmt 1
 197 0054 0EAA     		add	r2, sp, #56
 198 0056 0E49     		ldr	r1, .L15+8
 199 0058 01A8     		add	r0, sp, #4
 200 005a FFF7FEFF 		bl	sscanf
 201              	.LVL23:
  46:main.c        **** 
  47:main.c        ****         sum = addNumbers(num1, num2);
 202              		.loc 1 47 0
 203 005e 0E99     		ldr	r1, [sp, #56]
 204 0060 0F98     		ldr	r0, [sp, #60]
 205 0062 FFF7FEFF 		bl	addNumbers
 206              	.LVL24:
  48:main.c        ****         sprintf(buffer, "Sum: %d\r\n\r\n", sum);
 207              		.loc 1 48 0
 208 0066 0246     		mov	r2, r0
 209 0068 0B49     		ldr	r1, .L15+16
 210 006a 01A8     		add	r0, sp, #4
 211              	.LVL25:
 212 006c FFF7FEFF 		bl	sprintf
 213              	.LVL26:
  49:main.c        ****         UART_PutString(buffer);
 214              		.loc 1 49 0
 215 0070 01A8     		add	r0, sp, #4
 216 0072 FFF7FEFF 		bl	UART_PutString
 217              	.LVL27:
  50:main.c        ****     }
 218              		.loc 1 50 0
 219 0076 CEE7     		b	.L13
 220              	.L12:
  51:main.c        **** 
  52:main.c        ****     UART_PutString("Program terminated. You can now close the window.\r\n");
 221              		.loc 1 52 0
 222 0078 0848     		ldr	r0, .L15+20
 223 007a FFF7FEFF 		bl	UART_PutString
 224              	.LVL28:
  53:main.c        **** 
  54:main.c        ****     return 0;
  55:main.c        **** }...
 225              		.loc 1 55 0
 226 007e 0020     		movs	r0, #0
 227 0080 11B0     		add	sp, sp, #68
 228              		.cfi_def_cfa_offset 4
 229              		@ sp needed
 230 0082 5DF804FB 		ldr	pc, [sp], #4
ARM GAS  C:\Users\karthik\AppData\Local\Temp\cccyGiac.s 			page 6


 231              	.L16:
 232 0086 00BF     		.align	2
 233              	.L15:
 234 0088 04000000 		.word	.LC1
 235 008c 28000000 		.word	.LC2
 236 0090 40000000 		.word	.LC3
 237 0094 44000000 		.word	.LC4
 238 0098 5C000000 		.word	.LC5
 239 009c 68000000 		.word	.LC6
 240              		.cfi_endproc
 241              	.LFE66:
 242              		.size	main, .-main
 243              		.section	.rodata.str1.4,"aMS",%progbits,1
 244              		.align	2
 245              	.LC0:
 246 0000 0D0A00   		.ascii	"\015\012\000"
 247 0003 00       		.space	1
 248              	.LC1:
 249 0004 50726573 		.ascii	"Press 'q' to quit at any time.\015\012\015\012\000"
 249      73202771 
 249      2720746F 
 249      20717569 
 249      74206174 
 250 0027 00       		.space	1
 251              	.LC2:
 252 0028 456E7465 		.ascii	"Enter first number: \000"
 252      72206669 
 252      72737420 
 252      6E756D62 
 252      65723A20 
 253 003d 000000   		.space	3
 254              	.LC3:
 255 0040 256400   		.ascii	"%d\000"
 256 0043 00       		.space	1
 257              	.LC4:
 258 0044 456E7465 		.ascii	"Enter second number: \000"
 258      72207365 
 258      636F6E64 
 258      206E756D 
 258      6265723A 
 259 005a 0000     		.space	2
 260              	.LC5:
 261 005c 53756D3A 		.ascii	"Sum: %d\015\012\015\012\000"
 261      2025640D 
 261      0A0D0A00 
 262              	.LC6:
 263 0068 50726F67 		.ascii	"Program terminated. You can now close the window.\015"
 263      72616D20 
 263      7465726D 
 263      696E6174 
 263      65642E20 
 264 009a 0A00     		.ascii	"\012\000"
 265              		.text
 266              	.Letext0:
 267              		.file 2 "c:\\program files (x86)\\cypress\\psoc creator\\4.4\\psoc creator\\import\\gnu\\arm\\5.4.
 268              		.file 3 "c:\\program files (x86)\\cypress\\psoc creator\\4.4\\psoc creator\\import\\gnu\\arm\\5.4.
 269              		.file 4 "Generated_Source\\PSoC5/UART.h"
ARM GAS  C:\Users\karthik\AppData\Local\Temp\cccyGiac.s 			page 7


 270              		.file 5 "c:\\program files (x86)\\cypress\\psoc creator\\4.4\\psoc creator\\import\\gnu\\arm\\5.4.
 271              		.file 6 "Generated_Source\\PSoC5/core_cm3.h"