ARM GAS  C:\Users\karthik\AppData\Local\Temp\cc1QND5v.s 			page 1


   1              		.syntax unified
   2              		.cpu cortex-m3
   3              		.fpu softvfp
   4              		.eabi_attribute 20, 1
   5              		.eabi_attribute 21, 1
   6              		.eabi_attribute 23, 3
   7              		.eabi_attribute 24, 1
   8              		.eabi_attribute 25, 1
   9              		.eabi_attribute 26, 1
  10              		.eabi_attribute 30, 1
  11              		.eabi_attribute 34, 1
  12              		.eabi_attribute 18, 4
  13              		.thumb
  14              		.syntax unified
  15              		.file	"main.c"
  16              		.text
  17              	.Ltext0:
  18              		.cfi_sections	.debug_frame
  19              		.section	.text.uart_task,"ax",%progbits
  20              		.align	2
  21              		.global	uart_task
  22              		.thumb
  23              		.thumb_func
  24              		.type	uart_task, %function
  25              	uart_task:
  26              	.LFB69:
  27              		.file 1 "main.c"
   1:main.c        **** #include <stdio.h>
   2:main.c        **** #include <stdlib.h>
   3:main.c        **** #include <math.h>
   4:main.c        **** #include <string.h>
   5:main.c        **** #include "project.h"
   6:main.c        **** #include "FreeRTOS.h"
   7:main.c        **** #include "task.h"
   8:main.c        **** #include "timers.h"
   9:main.c        **** #include "queue.h"
  10:main.c        **** #include "semphr.h"
  11:main.c        **** 
  12:main.c        **** extern void     FreeRTOS_Start();
  13:main.c        **** 
  14:main.c        **** void uart_task(void *ptr){
  28              		.loc 1 14 0
  29              		.cfi_startproc
  30              		@ Volatile: function does not return.
  31              		@ args = 0, pretend = 0, frame = 0
  32              		@ frame_needed = 0, uses_anonymous_args = 0
  33              	.LVL0:
  34 0000 08B5     		push	{r3, lr}
  35              		.cfi_def_cfa_offset 8
  36              		.cfi_offset 3, -8
  37              		.cfi_offset 14, -4
  38              	.LVL1:
  39              	.L2:
  15:main.c        ****     while(1){
  16:main.c        ****         UART_PutString("this is a test\r\n");
  40              		.loc 1 16 0 discriminator 1
  41 0002 0448     		ldr	r0, .L4
ARM GAS  C:\Users\karthik\AppData\Local\Temp\cc1QND5v.s 			page 2


  42 0004 FFF7FEFF 		bl	UART_PutString
  43              	.LVL2:
  17:main.c        ****         vTaskDelay(1000);
  44              		.loc 1 17 0 discriminator 1
  45 0008 4FF47A70 		mov	r0, #1000
  46 000c FFF7FEFF 		bl	vTaskDelay
  47              	.LVL3:
  48 0010 F7E7     		b	.L2
  49              	.L5:
  50 0012 00BF     		.align	2
  51              	.L4:
  52 0014 00000000 		.word	.LC0
  53              		.cfi_endproc
  54              	.LFE69:
  55              		.size	uart_task, .-uart_task
  56              		.section	.text.led_task,"ax",%progbits
  57              		.align	2
  58              		.global	led_task
  59              		.thumb
  60              		.thumb_func
  61              		.type	led_task, %function
  62              	led_task:
  63              	.LFB70:
  18:main.c        ****     }
  19:main.c        **** }
  20:main.c        **** 
  21:main.c        **** void led_task(void *ptr){
  64              		.loc 1 21 0
  65              		.cfi_startproc
  66              		@ Volatile: function does not return.
  67              		@ args = 0, pretend = 0, frame = 0
  68              		@ frame_needed = 0, uses_anonymous_args = 0
  69              	.LVL4:
  70 0000 08B5     		push	{r3, lr}
  71              		.cfi_def_cfa_offset 8
  72              		.cfi_offset 3, -8
  73              		.cfi_offset 14, -4
  74              	.LVL5:
  75              	.L7:
  22:main.c        ****     while(1){   
  23:main.c        ****         led_Write( !led_Read() );
  76              		.loc 1 23 0 discriminator 1
  77 0002 FFF7FEFF 		bl	led_Read
  78              	.LVL6:
  79 0006 B0FA80F0 		clz	r0, r0
  80 000a 4009     		lsrs	r0, r0, #5
  81 000c FFF7FEFF 		bl	led_Write
  82              	.LVL7:
  24:main.c        ****         vTaskDelay(1000);
  83              		.loc 1 24 0 discriminator 1
  84 0010 4FF47A70 		mov	r0, #1000
  85 0014 FFF7FEFF 		bl	vTaskDelay
  86              	.LVL8:
  87 0018 F3E7     		b	.L7
  88              		.cfi_endproc
  89              	.LFE70:
  90              		.size	led_task, .-led_task
ARM GAS  C:\Users\karthik\AppData\Local\Temp\cc1QND5v.s 			page 3


  91 001a 00BF     		.section	.text.main,"ax",%progbits
  92              		.align	2
  93              		.global	main
  94              		.thumb
  95              		.thumb_func
  96              		.type	main, %function
  97              	main:
  98              	.LFB71:
  25:main.c        ****     }
  26:main.c        **** }
  27:main.c        **** 
  28:main.c        **** 
  29:main.c        **** int main(void)
  30:main.c        **** {   
  99              		.loc 1 30 0
 100              		.cfi_startproc
 101              		@ Volatile: function does not return.
 102              		@ args = 0, pretend = 0, frame = 0
 103              		@ frame_needed = 0, uses_anonymous_args = 0
 104 0000 00B5     		push	{lr}
 105              		.cfi_def_cfa_offset 4
 106              		.cfi_offset 14, -4
 107 0002 83B0     		sub	sp, sp, #12
 108              		.cfi_def_cfa_offset 16
  31:main.c        **** 
  32:main.c        ****     CyGlobalIntEnable; /* Enable global interrupts. */
 109              		.loc 1 32 0
 110              		.syntax unified
 111              	@ 32 "main.c" 1
 112 0004 62B6     		CPSIE   i
 113              	@ 0 "" 2
  33:main.c        ****     FreeRTOS_Start();
 114              		.loc 1 33 0
 115              		.thumb
 116              		.syntax unified
 117 0006 FFF7FEFF 		bl	FreeRTOS_Start
 118              	.LVL9:
  34:main.c        ****     UART_Start();
 119              		.loc 1 34 0
 120 000a FFF7FEFF 		bl	UART_Start
 121              	.LVL10:
  35:main.c        ****     UART_ClearTxBuffer();
 122              		.loc 1 35 0
 123 000e FFF7FEFF 		bl	UART_ClearTxBuffer
 124              	.LVL11:
  36:main.c        ****     xTaskCreate(uart_task,"task1", 200, NULL, 5, NULL);  
 125              		.loc 1 36 0
 126 0012 0024     		movs	r4, #0
 127 0014 0194     		str	r4, [sp, #4]
 128 0016 0525     		movs	r5, #5
 129 0018 0095     		str	r5, [sp]
 130 001a 2346     		mov	r3, r4
 131 001c C822     		movs	r2, #200
 132 001e 0749     		ldr	r1, .L12
 133 0020 0748     		ldr	r0, .L12+4
 134 0022 FFF7FEFF 		bl	xTaskCreate
 135              	.LVL12:
ARM GAS  C:\Users\karthik\AppData\Local\Temp\cc1QND5v.s 			page 4


  37:main.c        ****     xTaskCreate(led_task,"task2", 200, NULL, 5, NULL);  
 136              		.loc 1 37 0
 137 0026 0194     		str	r4, [sp, #4]
 138 0028 0095     		str	r5, [sp]
 139 002a 2346     		mov	r3, r4
 140 002c C822     		movs	r2, #200
 141 002e 0549     		ldr	r1, .L12+8
 142 0030 0548     		ldr	r0, .L12+12
 143 0032 FFF7FEFF 		bl	xTaskCreate
 144              	.LVL13:
  38:main.c        ****     vTaskStartScheduler();
 145              		.loc 1 38 0
 146 0036 FFF7FEFF 		bl	vTaskStartScheduler
 147              	.LVL14:
 148              	.L10:
 149 003a FEE7     		b	.L10
 150              	.L13:
 151              		.align	2
 152              	.L12:
 153 003c 14000000 		.word	.LC1
 154 0040 00000000 		.word	uart_task
 155 0044 1C000000 		.word	.LC2
 156 0048 00000000 		.word	led_task
 157              		.cfi_endproc
 158              	.LFE71:
 159              		.size	main, .-main
 160              		.section	.rodata.str1.4,"aMS",%progbits,1
 161              		.align	2
 162              	.LC0:
 163 0000 74686973 		.ascii	"this is a test\015\012\000"
 163      20697320 
 163      61207465 
 163      73740D0A 
 163      00
 164 0011 000000   		.space	3
 165              	.LC1:
 166 0014 7461736B 		.ascii	"task1\000"
 166      3100
 167 001a 0000     		.space	2
 168              	.LC2:
 169 001c 7461736B 		.ascii	"task2\000"
 169      3200
 170              		.text
 171              	.Letext0:
 172              		.file 2 "c:\\program files (x86)\\cypress\\psoc creator\\4.4\\psoc creator\\import\\gnu\\arm\\5.4.
 173              		.file 3 "c:\\program files (x86)\\cypress\\psoc creator\\4.4\\psoc creator\\import\\gnu\\arm\\5.4.
 174              		.file 4 "Generated_Source\\PSoC5/UART.h"
 175              		.file 5 "..\\FreeRTOS\\Source\\include/task.h"
 176              		.file 6 "Generated_Source\\PSoC5/led.h"
 177              		.file 7 "Generated_Source\\PSoC5/core_cm3.h"