ARM GAS  C:\Users\karthik\AppData\Local\Temp\ccmveSPz.s 			page 1


   1              		.syntax unified
   2              		.cpu cortex-m3
   3              		.fpu softvfp
   4              		.eabi_attribute 20, 1
   5              		.eabi_attribute 21, 1
   6              		.eabi_attribute 23, 3
   7              		.eabi_attribute 24, 1
   8              		.eabi_attribute 25, 1
   9              		.eabi_attribute 26, 1
  10              		.eabi_attribute 30, 1
  11              		.eabi_attribute 34, 1
  12              		.eabi_attribute 18, 4
  13              		.thumb
  14              		.syntax unified
  15              		.file	"main.c"
  16              		.text
  17              	.Ltext0:
  18              		.cfi_sections	.debug_frame
  19              		.section	.text.parseCommand,"ax",%progbits
  20              		.align	2
  21              		.global	parseCommand
  22              		.thumb
  23              		.thumb_func
  24              		.type	parseCommand, %function
  25              	parseCommand:
  26              	.LFB64:
  27              		.file 1 "main.c"
   1:main.c        **** #include <project.h>
   2:main.c        **** #include <string.h>
   3:main.c        **** #include <stdio.h>
   4:main.c        **** 
   5:main.c        **** void parseCommand(char *input, char *response) {
  28              		.loc 1 5 0
  29              		.cfi_startproc
  30              		@ args = 0, pretend = 0, frame = 0
  31              		@ frame_needed = 0, uses_anonymous_args = 0
  32              	.LVL0:
  33 0000 38B5     		push	{r3, r4, r5, lr}
  34              		.cfi_def_cfa_offset 16
  35              		.cfi_offset 3, -16
  36              		.cfi_offset 4, -12
  37              		.cfi_offset 5, -8
  38              		.cfi_offset 14, -4
  39 0002 0546     		mov	r5, r0
  40 0004 0C46     		mov	r4, r1
   6:main.c        ****     if (strncmp(input, "LED ON", 6) == 0) {
  41              		.loc 1 6 0
  42 0006 0622     		movs	r2, #6
  43 0008 1349     		ldr	r1, .L6
  44              	.LVL1:
  45 000a FFF7FEFF 		bl	strncmp
  46              	.LVL2:
  47 000e 48B9     		cbnz	r0, .L2
   7:main.c        ****         Pin_LED_Write(1);
  48              		.loc 1 7 0
  49 0010 0120     		movs	r0, #1
  50 0012 FFF7FEFF 		bl	Pin_LED_Write
ARM GAS  C:\Users\karthik\AppData\Local\Temp\ccmveSPz.s 			page 2


  51              	.LVL3:
   8:main.c        ****         strcpy(response, "LED turned ON\r\n");
  52              		.loc 1 8 0
  53 0016 114D     		ldr	r5, .L6+4
  54              	.LVL4:
  55 0018 0FCD     		ldmia	r5!, {r0, r1, r2, r3}
  56 001a 2060     		str	r0, [r4]	@ unaligned
  57 001c 6160     		str	r1, [r4, #4]	@ unaligned
  58 001e A260     		str	r2, [r4, #8]	@ unaligned
  59 0020 E360     		str	r3, [r4, #12]	@ unaligned
  60 0022 38BD     		pop	{r3, r4, r5, pc}
  61              	.LVL5:
  62              	.L2:
   9:main.c        ****     } else if (strncmp(input, "LED OFF", 7) == 0) {
  63              		.loc 1 9 0
  64 0024 0722     		movs	r2, #7
  65 0026 0E49     		ldr	r1, .L6+8
  66 0028 2846     		mov	r0, r5
  67 002a FFF7FEFF 		bl	strncmp
  68              	.LVL6:
  69 002e 50B9     		cbnz	r0, .L4
  10:main.c        ****         Pin_LED_Write(0);
  70              		.loc 1 10 0
  71 0030 FFF7FEFF 		bl	Pin_LED_Write
  72              	.LVL7:
  11:main.c        ****         strcpy(response, "LED turned OFF\r\n");
  73              		.loc 1 11 0
  74 0034 0B4D     		ldr	r5, .L6+12
  75              	.LVL8:
  76 0036 0FCD     		ldmia	r5!, {r0, r1, r2, r3}
  77 0038 2060     		str	r0, [r4]	@ unaligned
  78 003a 6160     		str	r1, [r4, #4]	@ unaligned
  79 003c A260     		str	r2, [r4, #8]	@ unaligned
  80 003e E360     		str	r3, [r4, #12]	@ unaligned
  81 0040 2B78     		ldrb	r3, [r5]	@ zero_extendqisi2
  82 0042 2374     		strb	r3, [r4, #16]
  83 0044 38BD     		pop	{r3, r4, r5, pc}
  84              	.LVL9:
  85              	.L4:
  12:main.c        ****     } else {
  13:main.c        ****         strcpy(response, "Unknown command\r\n");
  86              		.loc 1 13 0
  87 0046 084D     		ldr	r5, .L6+16
  88              	.LVL10:
  89 0048 0FCD     		ldmia	r5!, {r0, r1, r2, r3}
  90 004a 2060     		str	r0, [r4]	@ unaligned
  91 004c 6160     		str	r1, [r4, #4]	@ unaligned
  92 004e A260     		str	r2, [r4, #8]	@ unaligned
  93 0050 E360     		str	r3, [r4, #12]	@ unaligned
  94 0052 2B88     		ldrh	r3, [r5]	@ unaligned
  95 0054 2382     		strh	r3, [r4, #16]	@ unaligned
  96 0056 38BD     		pop	{r3, r4, r5, pc}
  97              	.LVL11:
  98              	.L7:
  99              		.align	2
 100              	.L6:
 101 0058 00000000 		.word	.LC0
ARM GAS  C:\Users\karthik\AppData\Local\Temp\ccmveSPz.s 			page 3


 102 005c 08000000 		.word	.LC1
 103 0060 18000000 		.word	.LC2
 104 0064 20000000 		.word	.LC3
 105 0068 34000000 		.word	.LC4
 106              		.cfi_endproc
 107              	.LFE64:
 108              		.size	parseCommand, .-parseCommand
 109              		.section	.text.UART_ReadLine,"ax",%progbits
 110              		.align	2
 111              		.global	UART_ReadLine
 112              		.thumb
 113              		.thumb_func
 114              		.type	UART_ReadLine, %function
 115              	UART_ReadLine:
 116              	.LFB65:
  14:main.c        ****     }
  15:main.c        **** }
  16:main.c        **** 
  17:main.c        **** // Reads a string from UART with echo
  18:main.c        **** void UART_ReadLine(char *buffer, int maxSize) {
 117              		.loc 1 18 0
 118              		.cfi_startproc
 119              		@ args = 0, pretend = 0, frame = 0
 120              		@ frame_needed = 0, uses_anonymous_args = 0
 121              	.LVL12:
 122 0000 F8B5     		push	{r3, r4, r5, r6, r7, lr}
 123              		.cfi_def_cfa_offset 24
 124              		.cfi_offset 3, -24
 125              		.cfi_offset 4, -20
 126              		.cfi_offset 5, -16
 127              		.cfi_offset 6, -12
 128              		.cfi_offset 7, -8
 129              		.cfi_offset 14, -4
 130 0002 0646     		mov	r6, r0
 131 0004 0F46     		mov	r7, r1
 132              	.LVL13:
  19:main.c        ****     int i = 0;
 133              		.loc 1 19 0
 134 0006 0023     		movs	r3, #0
 135              	.LVL14:
 136              	.L13:
 137 0008 1D46     		mov	r5, r3
 138              	.L9:
 139              	.LVL15:
  20:main.c        ****     char ch;
  21:main.c        **** 
  22:main.c        ****     while (1) {
  23:main.c        ****         if (UART_GetRxBufferSize() > 0) {
 140              		.loc 1 23 0
 141 000a FFF7FEFF 		bl	UART_GetRxBufferSize
 142              	.LVL16:
 143 000e 0028     		cmp	r0, #0
 144 0010 FBD0     		beq	.L9
  24:main.c        ****             ch = UART_GetChar();
 145              		.loc 1 24 0
 146 0012 FFF7FEFF 		bl	UART_GetChar
 147              	.LVL17:
ARM GAS  C:\Users\karthik\AppData\Local\Temp\ccmveSPz.s 			page 4


 148 0016 0446     		mov	r4, r0
 149              	.LVL18:
  25:main.c        ****             if (ch == '\r' || ch == '\n') {
 150              		.loc 1 25 0
 151 0018 0D28     		cmp	r0, #13
 152 001a 01D0     		beq	.L10
 153              		.loc 1 25 0 is_stmt 0 discriminator 1
 154 001c 0A28     		cmp	r0, #10
 155 001e 05D1     		bne	.L11
 156              	.L10:
  26:main.c        ****                 buffer[i] = '\0';
 157              		.loc 1 26 0 is_stmt 1
 158 0020 0023     		movs	r3, #0
 159 0022 7355     		strb	r3, [r6, r5]
  27:main.c        ****                 UART_PutString("\r\n");
 160              		.loc 1 27 0
 161 0024 0548     		ldr	r0, .L15
 162              	.LVL19:
 163 0026 FFF7FEFF 		bl	UART_PutString
 164              	.LVL20:
  28:main.c        ****                 break;
 165              		.loc 1 28 0
 166 002a F8BD     		pop	{r3, r4, r5, r6, r7, pc}
 167              	.LVL21:
 168              	.L11:
  29:main.c        ****             }
  30:main.c        ****             UART_PutChar(ch);
 169              		.loc 1 30 0
 170 002c FFF7FEFF 		bl	UART_PutChar
 171              	.LVL22:
  31:main.c        ****             buffer[i++] = ch;
 172              		.loc 1 31 0
 173 0030 6B1C     		adds	r3, r5, #1
 174              	.LVL23:
 175 0032 7455     		strb	r4, [r6, r5]
  32:main.c        ****             if (i >= maxSize - 1) break;
 176              		.loc 1 32 0
 177 0034 7A1E     		subs	r2, r7, #1
 178 0036 9342     		cmp	r3, r2
 179 0038 E6DB     		blt	.L13
 180 003a F8BD     		pop	{r3, r4, r5, r6, r7, pc}
 181              	.LVL24:
 182              	.L16:
 183              		.align	2
 184              	.L15:
 185 003c 48000000 		.word	.LC5
 186              		.cfi_endproc
 187              	.LFE65:
 188              		.size	UART_ReadLine, .-UART_ReadLine
 189              		.section	.text.main,"ax",%progbits
 190              		.align	2
 191              		.global	main
 192              		.thumb
 193              		.thumb_func
 194              		.type	main, %function
 195              	main:
 196              	.LFB66:
ARM GAS  C:\Users\karthik\AppData\Local\Temp\ccmveSPz.s 			page 5


  33:main.c        ****         }
  34:main.c        ****     }
  35:main.c        **** }
  36:main.c        **** 
  37:main.c        **** int main(void) {
 197              		.loc 1 37 0
 198              		.cfi_startproc
 199              		@ args = 0, pretend = 0, frame = 104
 200              		@ frame_needed = 0, uses_anonymous_args = 0
 201 0000 00B5     		push	{lr}
 202              		.cfi_def_cfa_offset 4
 203              		.cfi_offset 14, -4
 204 0002 9BB0     		sub	sp, sp, #108
 205              		.cfi_def_cfa_offset 112
  38:main.c        ****     CyGlobalIntEnable;
 206              		.loc 1 38 0
 207              		.syntax unified
 208              	@ 38 "main.c" 1
 209 0004 62B6     		CPSIE   i
 210              	@ 0 "" 2
  39:main.c        ****     UART_Start();
 211              		.loc 1 39 0
 212              		.thumb
 213              		.syntax unified
 214 0006 FFF7FEFF 		bl	UART_Start
 215              	.LVL25:
  40:main.c        **** 
  41:main.c        ****     UART_PutString("UART Command Parser Ready\r\n");
 216              		.loc 1 41 0
 217 000a 0A48     		ldr	r0, .L20
 218 000c FFF7FEFF 		bl	UART_PutString
 219              	.LVL26:
  42:main.c        ****     UART_PutString("Type 'LED ON' or 'LED OFF'\r\n\r\n");
 220              		.loc 1 42 0
 221 0010 0948     		ldr	r0, .L20+4
 222 0012 FFF7FEFF 		bl	UART_PutString
 223              	.LVL27:
 224              	.L18:
  43:main.c        **** 
  44:main.c        ****     char input[50];
  45:main.c        ****     char response[50];
  46:main.c        **** 
  47:main.c        ****     for (;;) {
  48:main.c        ****         UART_PutString("> ");
 225              		.loc 1 48 0 discriminator 1
 226 0016 0948     		ldr	r0, .L20+8
 227 0018 FFF7FEFF 		bl	UART_PutString
 228              	.LVL28:
  49:main.c        ****         UART_ReadLine(input, sizeof(input));
 229              		.loc 1 49 0 discriminator 1
 230 001c 3221     		movs	r1, #50
 231 001e 0DA8     		add	r0, sp, #52
 232 0020 FFF7FEFF 		bl	UART_ReadLine
 233              	.LVL29:
  50:main.c        ****         parseCommand(input, response);
 234              		.loc 1 50 0 discriminator 1
 235 0024 6946     		mov	r1, sp
ARM GAS  C:\Users\karthik\AppData\Local\Temp\ccmveSPz.s 			page 6


 236 0026 0DA8     		add	r0, sp, #52
 237 0028 FFF7FEFF 		bl	parseCommand
 238              	.LVL30:
  51:main.c        ****         UART_PutString(response);
 239              		.loc 1 51 0 discriminator 1
 240 002c 6846     		mov	r0, sp
 241 002e FFF7FEFF 		bl	UART_PutString
 242              	.LVL31:
 243 0032 F0E7     		b	.L18
 244              	.L21:
 245              		.align	2
 246              	.L20:
 247 0034 4C000000 		.word	.LC6
 248 0038 68000000 		.word	.LC7
 249 003c 88000000 		.word	.LC8
 250              		.cfi_endproc
 251              	.LFE66:
 252              		.size	main, .-main
 253              		.section	.rodata.str1.4,"aMS",%progbits,1
 254              		.align	2
 255              	.LC0:
 256 0000 4C454420 		.ascii	"LED ON\000"
 256      4F4E00
 257 0007 00       		.space	1
 258              	.LC1:
 259 0008 4C454420 		.ascii	"LED turned ON\015\012\000"
 259      7475726E 
 259      6564204F 
 259      4E0D0A00 
 260              	.LC2:
 261 0018 4C454420 		.ascii	"LED OFF\000"
 261      4F464600 
 262              	.LC3:
 263 0020 4C454420 		.ascii	"LED turned OFF\015\012\000"
 263      7475726E 
 263      6564204F 
 263      46460D0A 
 263      00
 264 0031 000000   		.space	3
 265              	.LC4:
 266 0034 556E6B6E 		.ascii	"Unknown command\015\012\000"
 266      6F776E20 
 266      636F6D6D 
 266      616E640D 
 266      0A00
 267 0046 0000     		.space	2
 268              	.LC5:
 269 0048 0D0A00   		.ascii	"\015\012\000"
 270 004b 00       		.space	1
 271              	.LC6:
 272 004c 55415254 		.ascii	"UART Command Parser Ready\015\012\000"
 272      20436F6D 
 272      6D616E64 
 272      20506172 
 272      73657220 
 273              	.LC7:
 274 0068 54797065 		.ascii	"Type 'LED ON' or 'LED OFF'\015\012\015\012\000"
ARM GAS  C:\Users\karthik\AppData\Local\Temp\ccmveSPz.s 			page 7


 274      20274C45 
 274      44204F4E 
 274      27206F72 
 274      20274C45 
 275 0087 00       		.space	1
 276              	.LC8:
 277 0088 3E2000   		.ascii	"> \000"
 278              		.text
 279              	.Letext0:
 280              		.file 2 "c:\\program files (x86)\\cypress\\psoc creator\\4.4\\psoc creator\\import\\gnu\\arm\\5.4.
 281              		.file 3 "c:\\program files (x86)\\cypress\\psoc creator\\4.4\\psoc creator\\import\\gnu\\arm\\5.4.
 282              		.file 4 "c:\\program files (x86)\\cypress\\psoc creator\\4.4\\psoc creator\\import\\gnu\\arm\\5.4.
 283              		.file 5 "Generated_Source\\PSoC5/Pin_LED.h"
 284              		.file 6 "Generated_Source\\PSoC5/UART.h"
 285              		.file 7 "Generated_Source\\PSoC5/core_cm3.h"