ARM GAS  C:\Users\karthik\AppData\Local\Temp\cc2hQL5G.s 			page 1


   1              		.syntax unified
   2              		.cpu cortex-m3
   3              		.fpu softvfp
   4              		.eabi_attribute 20, 1
   5              		.eabi_attribute 21, 1
   6              		.eabi_attribute 23, 3
   7              		.eabi_attribute 24, 1
   8              		.eabi_attribute 25, 1
   9              		.eabi_attribute 26, 1
  10              		.eabi_attribute 30, 1
  11              		.eabi_attribute 34, 1
  12              		.eabi_attribute 18, 4
  13              		.thumb
  14              		.syntax unified
  15              		.file	"main.c"
  16              		.text
  17              	.Ltext0:
  18              		.cfi_sections	.debug_frame
  19              		.section	.text.initHardware,"ax",%progbits
  20              		.align	2
  21              		.global	initHardware
  22              		.thumb
  23              		.thumb_func
  24              		.type	initHardware, %function
  25              	initHardware:
  26              	.LFB64:
  27              		.file 1 "main.c"
   1:main.c        **** #include "project.h"
   2:main.c        **** #include <string.h>
   3:main.c        **** #include <stdio.h>
   4:main.c        **** 
   5:main.c        **** #define BUFFER_SIZE 64
   6:main.c        **** 
   7:main.c        **** char inputBuffer[BUFFER_SIZE];
   8:main.c        **** char copyBuffer[BUFFER_SIZE];
   9:main.c        **** char txBuffer[128];
  10:main.c        **** 
  11:main.c        **** void initHardware() {
  28              		.loc 1 11 0
  29              		.cfi_startproc
  30              		@ args = 0, pretend = 0, frame = 0
  31              		@ frame_needed = 0, uses_anonymous_args = 0
  32 0000 08B5     		push	{r3, lr}
  33              		.cfi_def_cfa_offset 8
  34              		.cfi_offset 3, -8
  35              		.cfi_offset 14, -4
  12:main.c        ****     UART_Start();
  36              		.loc 1 12 0
  37 0002 FFF7FEFF 		bl	UART_Start
  38              	.LVL0:
  13:main.c        ****     Pin_LED_Write(0); // LED OFF initially
  39              		.loc 1 13 0
  40 0006 0020     		movs	r0, #0
  41 0008 FFF7FEFF 		bl	Pin_LED_Write
  42              	.LVL1:
  14:main.c        ****     CyGlobalIntEnable;
  43              		.loc 1 14 0
ARM GAS  C:\Users\karthik\AppData\Local\Temp\cc2hQL5G.s 			page 2


  44              		.syntax unified
  45              	@ 14 "main.c" 1
  46 000c 62B6     		CPSIE   i
  47              	@ 0 "" 2
  48              		.thumb
  49              		.syntax unified
  50 000e 08BD     		pop	{r3, pc}
  51              		.cfi_endproc
  52              	.LFE64:
  53              		.size	initHardware, .-initHardware
  54              		.section	.text.promptUser,"ax",%progbits
  55              		.align	2
  56              		.global	promptUser
  57              		.thumb
  58              		.thumb_func
  59              		.type	promptUser, %function
  60              	promptUser:
  61              	.LFB65:
  15:main.c        **** }
  16:main.c        **** 
  17:main.c        **** void promptUser() {
  62              		.loc 1 17 0
  63              		.cfi_startproc
  64              		@ args = 0, pretend = 0, frame = 0
  65              		@ frame_needed = 0, uses_anonymous_args = 0
  66 0000 08B5     		push	{r3, lr}
  67              		.cfi_def_cfa_offset 8
  68              		.cfi_offset 3, -8
  69              		.cfi_offset 14, -4
  18:main.c        ****     UART_PutString("Enter a string (max 63 chars): ");
  70              		.loc 1 18 0
  71 0002 0248     		ldr	r0, .L5
  72 0004 FFF7FEFF 		bl	UART_PutString
  73              	.LVL2:
  74 0008 08BD     		pop	{r3, pc}
  75              	.L6:
  76 000a 00BF     		.align	2
  77              	.L5:
  78 000c 00000000 		.word	.LC0
  79              		.cfi_endproc
  80              	.LFE65:
  81              		.size	promptUser, .-promptUser
  82              		.section	.text.readUserInput,"ax",%progbits
  83              		.align	2
  84              		.global	readUserInput
  85              		.thumb
  86              		.thumb_func
  87              		.type	readUserInput, %function
  88              	readUserInput:
  89              	.LFB66:
  19:main.c        **** }
  20:main.c        **** 
  21:main.c        **** void readUserInput() {
  90              		.loc 1 21 0
  91              		.cfi_startproc
  92              		@ args = 0, pretend = 0, frame = 0
  93              		@ frame_needed = 0, uses_anonymous_args = 0
ARM GAS  C:\Users\karthik\AppData\Local\Temp\cc2hQL5G.s 			page 3


  94 0000 38B5     		push	{r3, r4, r5, lr}
  95              		.cfi_def_cfa_offset 16
  96              		.cfi_offset 3, -16
  97              		.cfi_offset 4, -12
  98              		.cfi_offset 5, -8
  99              		.cfi_offset 14, -4
 100              	.LVL3:
  22:main.c        ****     uint8_t index = 0;
 101              		.loc 1 22 0
 102 0002 0024     		movs	r4, #0
  23:main.c        ****     char ch;
  24:main.c        ****     while (index < BUFFER_SIZE - 1) {
 103              		.loc 1 24 0
 104 0004 10E0     		b	.L8
 105              	.LVL4:
 106              	.L9:
  25:main.c        ****         while (!UART_GetRxBufferSize()); // Wait for input
 107              		.loc 1 25 0 discriminator 1
 108 0006 FFF7FEFF 		bl	UART_GetRxBufferSize
 109              	.LVL5:
 110 000a 0028     		cmp	r0, #0
 111 000c FBD0     		beq	.L9
  26:main.c        ****         ch = UART_GetChar();
 112              		.loc 1 26 0
 113 000e FFF7FEFF 		bl	UART_GetChar
 114              	.LVL6:
  27:main.c        ****         if (ch == '\r' || ch == '\n') {
 115              		.loc 1 27 0
 116 0012 0D28     		cmp	r0, #13
 117 0014 0AD0     		beq	.L10
 118              		.loc 1 27 0 is_stmt 0 discriminator 1
 119 0016 0A28     		cmp	r0, #10
 120 0018 08D0     		beq	.L10
  28:main.c        ****             break;
  29:main.c        ****         }
  30:main.c        ****         inputBuffer[index++] = ch;
 121              		.loc 1 30 0 is_stmt 1
 122 001a 651C     		adds	r5, r4, #1
 123 001c EDB2     		uxtb	r5, r5
 124              	.LVL7:
 125 001e 074B     		ldr	r3, .L12
 126 0020 1855     		strb	r0, [r3, r4]
  31:main.c        ****         UART_PutChar(ch); // Echo
 127              		.loc 1 31 0
 128 0022 FFF7FEFF 		bl	UART_PutChar
 129              	.LVL8:
  30:main.c        ****         UART_PutChar(ch); // Echo
 130              		.loc 1 30 0
 131 0026 2C46     		mov	r4, r5
 132              	.LVL9:
 133              	.L8:
  24:main.c        ****         while (!UART_GetRxBufferSize()); // Wait for input
 134              		.loc 1 24 0
 135 0028 3E2C     		cmp	r4, #62
 136 002a ECD9     		bls	.L9
 137              	.L10:
  32:main.c        ****     }
ARM GAS  C:\Users\karthik\AppData\Local\Temp\cc2hQL5G.s 			page 4


  33:main.c        ****     inputBuffer[index] = '\0';
 138              		.loc 1 33 0
 139 002c 0022     		movs	r2, #0
 140 002e 034B     		ldr	r3, .L12
 141 0030 1A55     		strb	r2, [r3, r4]
  34:main.c        ****     UART_PutString("\r\n");
 142              		.loc 1 34 0
 143 0032 0348     		ldr	r0, .L12+4
 144 0034 FFF7FEFF 		bl	UART_PutString
 145              	.LVL10:
 146 0038 38BD     		pop	{r3, r4, r5, pc}
 147              	.LVL11:
 148              	.L13:
 149 003a 00BF     		.align	2
 150              	.L12:
 151 003c 00000000 		.word	inputBuffer
 152 0040 20000000 		.word	.LC1
 153              		.cfi_endproc
 154              	.LFE66:
 155              		.size	readUserInput, .-readUserInput
 156              		.section	.text.main,"ax",%progbits
 157              		.align	2
 158              		.global	main
 159              		.thumb
 160              		.thumb_func
 161              		.type	main, %function
 162              	main:
 163              	.LFB67:
  35:main.c        **** }
  36:main.c        **** 
  37:main.c        **** int main(void) {
 164              		.loc 1 37 0
 165              		.cfi_startproc
 166              		@ Volatile: function does not return.
 167              		@ args = 0, pretend = 0, frame = 0
 168              		@ frame_needed = 0, uses_anonymous_args = 0
 169 0000 08B5     		push	{r3, lr}
 170              		.cfi_def_cfa_offset 8
 171              		.cfi_offset 3, -8
 172              		.cfi_offset 14, -4
  38:main.c        ****     initHardware();
 173              		.loc 1 38 0
 174 0002 FFF7FEFF 		bl	initHardware
 175              	.LVL12:
  39:main.c        ****     UART_PutString("PSoC memcpy() Demo with LED and UART\r\n");
 176              		.loc 1 39 0
 177 0006 1A48     		ldr	r0, .L19
 178 0008 FFF7FEFF 		bl	UART_PutString
 179              	.LVL13:
 180              	.L17:
  40:main.c        **** 
  41:main.c        ****     while (1) {
  42:main.c        ****         promptUser();
 181              		.loc 1 42 0
 182 000c FFF7FEFF 		bl	promptUser
 183              	.LVL14:
  43:main.c        ****         readUserInput();
ARM GAS  C:\Users\karthik\AppData\Local\Temp\cc2hQL5G.s 			page 5


 184              		.loc 1 43 0
 185 0010 FFF7FEFF 		bl	readUserInput
 186              	.LVL15:
  44:main.c        **** 
  45:main.c        ****         memcpy(copyBuffer, inputBuffer, strlen(inputBuffer) + 1);
 187              		.loc 1 45 0
 188 0014 174C     		ldr	r4, .L19+4
 189 0016 2046     		mov	r0, r4
 190 0018 FFF7FEFF 		bl	strlen
 191              	.LVL16:
 192 001c 164D     		ldr	r5, .L19+8
 193 001e 421C     		adds	r2, r0, #1
 194 0020 2146     		mov	r1, r4
 195 0022 2846     		mov	r0, r5
 196 0024 FFF7FEFF 		bl	memcpy
 197              	.LVL17:
  46:main.c        **** 
  47:main.c        ****         if (strcmp(inputBuffer, copyBuffer) == 0) {
 198              		.loc 1 47 0
 199 0028 2946     		mov	r1, r5
 200 002a 2046     		mov	r0, r4
 201 002c FFF7FEFF 		bl	strcmp
 202              	.LVL18:
 203 0030 30B9     		cbnz	r0, .L15
  48:main.c        ****             UART_PutString("Copy successful. Strings match.\r\n");
 204              		.loc 1 48 0
 205 0032 1248     		ldr	r0, .L19+12
 206 0034 FFF7FEFF 		bl	UART_PutString
 207              	.LVL19:
  49:main.c        ****             Pin_LED_Write(1); // LED ON
 208              		.loc 1 49 0
 209 0038 0120     		movs	r0, #1
 210 003a FFF7FEFF 		bl	Pin_LED_Write
 211              	.LVL20:
 212 003e 05E0     		b	.L16
 213              	.L15:
  50:main.c        ****         } else {
  51:main.c        ****             UART_PutString("Copy failed. Strings do not match.\r\n");
 214              		.loc 1 51 0
 215 0040 0F48     		ldr	r0, .L19+16
 216 0042 FFF7FEFF 		bl	UART_PutString
 217              	.LVL21:
  52:main.c        ****             Pin_LED_Write(0); // LED OFF
 218              		.loc 1 52 0
 219 0046 0020     		movs	r0, #0
 220 0048 FFF7FEFF 		bl	Pin_LED_Write
 221              	.LVL22:
 222              	.L16:
  53:main.c        ****         }
  54:main.c        **** 
  55:main.c        ****         sprintf(txBuffer, "Original: %s\r\nCopy: %s\r\n\r\n", inputBuffer, copyBuffer);
 223              		.loc 1 55 0
 224 004c 0D4C     		ldr	r4, .L19+20
 225 004e 0A4B     		ldr	r3, .L19+8
 226 0050 084A     		ldr	r2, .L19+4
 227 0052 0D49     		ldr	r1, .L19+24
 228 0054 2046     		mov	r0, r4
ARM GAS  C:\Users\karthik\AppData\Local\Temp\cc2hQL5G.s 			page 6


 229 0056 FFF7FEFF 		bl	sprintf
 230              	.LVL23:
  56:main.c        ****         UART_PutString(txBuffer);
 231              		.loc 1 56 0
 232 005a 2046     		mov	r0, r4
 233 005c FFF7FEFF 		bl	UART_PutString
 234              	.LVL24:
  57:main.c        **** 
  58:main.c        ****         CyDelay(2000);
 235              		.loc 1 58 0
 236 0060 4FF4FA60 		mov	r0, #2000
 237 0064 FFF7FEFF 		bl	CyDelay
 238              	.LVL25:
  59:main.c        ****         Pin_LED_Write(0); // Turn OFF LED after delay
 239              		.loc 1 59 0
 240 0068 0020     		movs	r0, #0
 241 006a FFF7FEFF 		bl	Pin_LED_Write
 242              	.LVL26:
  60:main.c        ****     }
 243              		.loc 1 60 0
 244 006e CDE7     		b	.L17
 245              	.L20:
 246              		.align	2
 247              	.L19:
 248 0070 24000000 		.word	.LC2
 249 0074 00000000 		.word	inputBuffer
 250 0078 00000000 		.word	copyBuffer
 251 007c 4C000000 		.word	.LC3
 252 0080 70000000 		.word	.LC4
 253 0084 00000000 		.word	txBuffer
 254 0088 98000000 		.word	.LC5
 255              		.cfi_endproc
 256              	.LFE67:
 257              		.size	main, .-main
 258              		.comm	txBuffer,128,4
 259              		.comm	copyBuffer,64,4
 260              		.comm	inputBuffer,64,4
 261              		.section	.rodata.str1.4,"aMS",%progbits,1
 262              		.align	2
 263              	.LC0:
 264 0000 456E7465 		.ascii	"Enter a string (max 63 chars): \000"
 264      72206120 
 264      73747269 
 264      6E672028 
 264      6D617820 
 265              	.LC1:
 266 0020 0D0A00   		.ascii	"\015\012\000"
 267 0023 00       		.space	1
 268              	.LC2:
 269 0024 50536F43 		.ascii	"PSoC memcpy() Demo with LED and UART\015\012\000"
 269      206D656D 
 269      63707928 
 269      29204465 
 269      6D6F2077 
 270 004b 00       		.space	1
 271              	.LC3:
 272 004c 436F7079 		.ascii	"Copy successful. Strings match.\015\012\000"
ARM GAS  C:\Users\karthik\AppData\Local\Temp\cc2hQL5G.s 			page 7


 272      20737563 
 272      63657373 
 272      66756C2E 
 272      20537472 
 273 006e 0000     		.space	2
 274              	.LC4:
 275 0070 436F7079 		.ascii	"Copy failed. Strings do not match.\015\012\000"
 275      20666169 
 275      6C65642E 
 275      20537472 
 275      696E6773 
 276 0095 000000   		.space	3
 277              	.LC5:
 278 0098 4F726967 		.ascii	"Original: %s\015\012Copy: %s\015\012\015\012\000"
 278      696E616C 
 278      3A202573 
 278      0D0A436F 
 278      70793A20 
 279              		.text
 280              	.Letext0:
 281              		.file 2 "c:\\program files (x86)\\cypress\\psoc creator\\4.4\\psoc creator\\import\\gnu\\arm\\5.4.
 282              		.file 3 "c:\\program files (x86)\\cypress\\psoc creator\\4.4\\psoc creator\\import\\gnu\\arm\\5.4.
 283              		.file 4 "Generated_Source\\PSoC5/core_cm3.h"
 284              		.file 5 "Generated_Source\\PSoC5/UART.h"
 285              		.file 6 "Generated_Source\\PSoC5/Pin_LED.h"
 286              		.file 7 "c:\\program files (x86)\\cypress\\psoc creator\\4.4\\psoc creator\\import\\gnu\\arm\\5.4.
 287              		.file 8 "c:\\program files (x86)\\cypress\\psoc creator\\4.4\\psoc creator\\import\\gnu\\arm\\5.4.
 288              		.file 9 "Generated_Source\\PSoC5/CyLib.h"