ARM GAS  C:\Users\karthik\AppData\Local\Temp\ccBxkHhd.s 			page 1


   1              		.syntax unified
   2              		.cpu cortex-m3
   3              		.fpu softvfp
   4              		.eabi_attribute 20, 1
   5              		.eabi_attribute 21, 1
   6              		.eabi_attribute 23, 3
   7              		.eabi_attribute 24, 1
   8              		.eabi_attribute 25, 1
   9              		.eabi_attribute 26, 1
  10              		.eabi_attribute 30, 1
  11              		.eabi_attribute 34, 1
  12              		.eabi_attribute 18, 4
  13              		.thumb
  14              		.syntax unified
  15              		.file	"main.c"
  16              		.text
  17              	.Ltext0:
  18              		.cfi_sections	.debug_frame
  19              		.section	.text.uart_input_task,"ax",%progbits
  20              		.align	2
  21              		.global	uart_input_task
  22              		.thumb
  23              		.thumb_func
  24              		.type	uart_input_task, %function
  25              	uart_input_task:
  26              	.LFB69:
  27              		.file 1 "main.c"
   1:main.c        **** #include <stdio.h>
   2:main.c        **** #include <stdlib.h>
   3:main.c        **** #include <string.h>
   4:main.c        **** #include "project.h"
   5:main.c        **** #include "FreeRTOS.h"
   6:main.c        **** #include "task.h"
   7:main.c        **** #include "semphr.h"
   8:main.c        **** 
   9:main.c        **** extern void FreeRTOS_Start();
  10:main.c        **** 
  11:main.c        **** SemaphoreHandle_t toggle_semaphore;
  12:main.c        **** 
  13:main.c        **** volatile uint8_t led_enabled = 1;
  14:main.c        **** volatile uint8_t auto_mode = 0;
  15:main.c        **** volatile uint32_t manual_event_count = 0;
  16:main.c        **** volatile uint32_t auto_event_count = 0;
  17:main.c        **** volatile uint32_t total_events_handled = 0;
  18:main.c        **** 
  19:main.c        **** void uart_input_task(void *ptr) {
  28              		.loc 1 19 0
  29              		.cfi_startproc
  30              		@ args = 0, pretend = 0, frame = 160
  31              		@ frame_needed = 0, uses_anonymous_args = 0
  32              	.LVL0:
  33 0000 30B5     		push	{r4, r5, lr}
  34              		.cfi_def_cfa_offset 12
  35              		.cfi_offset 4, -12
  36              		.cfi_offset 5, -8
  37              		.cfi_offset 14, -4
  38 0002 ABB0     		sub	sp, sp, #172
ARM GAS  C:\Users\karthik\AppData\Local\Temp\ccBxkHhd.s 			page 2


  39              		.cfi_def_cfa_offset 184
  40              	.LVL1:
  20:main.c        ****     char buffer[32];
  21:main.c        ****     uint8_t index = 0;
  41              		.loc 1 21 0
  42 0004 0024     		movs	r4, #0
  43              	.LVL2:
  44              	.L18:
  45              	.LBB2:
  22:main.c        ****     while (1) {
  23:main.c        ****         char ch = UART_GetChar();
  46              		.loc 1 23 0
  47 0006 FFF7FEFF 		bl	UART_GetChar
  48              	.LVL3:
  24:main.c        ****         if (ch != 0u && ch != 0xFF) {
  49              		.loc 1 24 0
  50 000a 431E     		subs	r3, r0, #1
  51 000c DBB2     		uxtb	r3, r3
  52 000e FD2B     		cmp	r3, #253
  53 0010 00F2B280 		bhi	.L2
  25:main.c        ****             if (ch == '\r' || ch == '\n') {
  54              		.loc 1 25 0
  55 0014 0D28     		cmp	r0, #13
  56 0016 02D0     		beq	.L3
  57              		.loc 1 25 0 is_stmt 0 discriminator 1
  58 0018 0A28     		cmp	r0, #10
  59 001a 40F0A280 		bne	.L4
  60              	.L3:
  26:main.c        ****                 buffer[index] = '\0';
  61              		.loc 1 26 0 is_stmt 1
  62 001e 2AAB     		add	r3, sp, #168
  63 0020 1C44     		add	r4, r4, r3
  64              	.LVL4:
  65 0022 0023     		movs	r3, #0
  66 0024 04F8203C 		strb	r3, [r4, #-32]
  67              	.LVL5:
  27:main.c        ****                 index = 0;
  28:main.c        **** 
  29:main.c        ****                 if (strcasecmp(buffer, "toggle") == 0) {
  68              		.loc 1 29 0
  69 0028 5549     		ldr	r1, .L23
  70 002a 22A8     		add	r0, sp, #136
  71              	.LVL6:
  72 002c FFF7FEFF 		bl	strcasecmp
  73              	.LVL7:
  74 0030 F8B9     		cbnz	r0, .L5
  30:main.c        ****                     if (led_enabled) {
  75              		.loc 1 30 0
  76 0032 544B     		ldr	r3, .L23+4
  77 0034 1B78     		ldrb	r3, [r3]	@ zero_extendqisi2
  78 0036 13F0FF0F 		tst	r3, #255
  79 003a 0DD1     		bne	.L19
  80 003c 14E0     		b	.L21
  81              	.LVL8:
  82              	.L8:
  83              	.LBB3:
  31:main.c        ****                         for (int i = 0; i < 3; i++) {
ARM GAS  C:\Users\karthik\AppData\Local\Temp\ccBxkHhd.s 			page 3


  32:main.c        ****                             xSemaphoreGive(toggle_semaphore);
  84              		.loc 1 32 0 discriminator 3
  85 003e 0023     		movs	r3, #0
  86 0040 1A46     		mov	r2, r3
  87 0042 1946     		mov	r1, r3
  88 0044 5048     		ldr	r0, .L23+8
  89 0046 0068     		ldr	r0, [r0]
  90 0048 FFF7FEFF 		bl	xQueueGenericSend
  91              	.LVL9:
  33:main.c        ****                             manual_event_count++;
  92              		.loc 1 33 0 discriminator 3
  93 004c 4F4A     		ldr	r2, .L23+12
  94 004e 1368     		ldr	r3, [r2]
  95 0050 0133     		adds	r3, r3, #1
  96 0052 1360     		str	r3, [r2]
  31:main.c        ****                         for (int i = 0; i < 3; i++) {
  97              		.loc 1 31 0 discriminator 3
  98 0054 0134     		adds	r4, r4, #1
  99              	.LVL10:
 100 0056 00E0     		b	.L6
 101              	.LVL11:
 102              	.L19:
 103              	.LBE3:
 104 0058 0024     		movs	r4, #0
 105              	.L6:
 106              	.LVL12:
 107              	.LBB4:
  31:main.c        ****                         for (int i = 0; i < 3; i++) {
 108              		.loc 1 31 0 is_stmt 0 discriminator 1
 109 005a 022C     		cmp	r4, #2
 110 005c EFDD     		ble	.L8
 111              	.LBE4:
  34:main.c        ****                         }
  35:main.c        ****                         UART_PutString("\r\n[Manual] 3 toggle events queued\r\n");
 112              		.loc 1 35 0 is_stmt 1
 113 005e 4C48     		ldr	r0, .L23+16
 114 0060 FFF7FEFF 		bl	UART_PutString
 115              	.LVL13:
  27:main.c        **** 
 116              		.loc 1 27 0
 117 0064 0024     		movs	r4, #0
 118              	.LVL14:
 119 0066 87E0     		b	.L2
 120              	.L21:
  36:main.c        ****                     } else {
  37:main.c        ****                         UART_PutString("\r\nLED disabled (sleep mode)\r\n");
 121              		.loc 1 37 0
 122 0068 4A48     		ldr	r0, .L23+20
 123 006a FFF7FEFF 		bl	UART_PutString
 124              	.LVL15:
  27:main.c        **** 
 125              		.loc 1 27 0
 126 006e 0024     		movs	r4, #0
 127 0070 82E0     		b	.L2
 128              	.L5:
  38:main.c        ****                     }
  39:main.c        ****                 } else if (strcasecmp(buffer, "auto on") == 0) {
ARM GAS  C:\Users\karthik\AppData\Local\Temp\ccBxkHhd.s 			page 4


 129              		.loc 1 39 0
 130 0072 4949     		ldr	r1, .L23+24
 131 0074 22A8     		add	r0, sp, #136
 132 0076 FFF7FEFF 		bl	strcasecmp
 133              	.LVL16:
 134 007a 38B9     		cbnz	r0, .L9
  40:main.c        ****                     auto_mode = 1;
 135              		.loc 1 40 0
 136 007c 0122     		movs	r2, #1
 137 007e 434B     		ldr	r3, .L23+12
 138 0080 1A71     		strb	r2, [r3, #4]
  41:main.c        ****                     UART_PutString("\r\nAuto events enabled\r\n");
 139              		.loc 1 41 0
 140 0082 4648     		ldr	r0, .L23+28
 141 0084 FFF7FEFF 		bl	UART_PutString
 142              	.LVL17:
  27:main.c        **** 
 143              		.loc 1 27 0
 144 0088 0024     		movs	r4, #0
 145 008a 75E0     		b	.L2
 146              	.L9:
  42:main.c        ****                 } else if (strcasecmp(buffer, "auto off") == 0) {
 147              		.loc 1 42 0
 148 008c 4449     		ldr	r1, .L23+32
 149 008e 22A8     		add	r0, sp, #136
 150 0090 FFF7FEFF 		bl	strcasecmp
 151              	.LVL18:
 152 0094 30B9     		cbnz	r0, .L10
  43:main.c        ****                     auto_mode = 0;
 153              		.loc 1 43 0
 154 0096 0024     		movs	r4, #0
 155 0098 3C4B     		ldr	r3, .L23+12
 156 009a 1C71     		strb	r4, [r3, #4]
  44:main.c        ****                     UART_PutString("\r\nAuto events disabled\r\n");
 157              		.loc 1 44 0
 158 009c 4148     		ldr	r0, .L23+36
 159 009e FFF7FEFF 		bl	UART_PutString
 160              	.LVL19:
 161 00a2 69E0     		b	.L2
 162              	.L10:
  45:main.c        ****                 } else if (strcasecmp(buffer, "status") == 0) {
 163              		.loc 1 45 0
 164 00a4 4049     		ldr	r1, .L23+40
 165 00a6 22A8     		add	r0, sp, #136
 166 00a8 FFF7FEFF 		bl	strcasecmp
 167              	.LVL20:
 168 00ac A0B9     		cbnz	r0, .L11
 169              	.LBB5:
  46:main.c        ****                     char status[128];
  47:main.c        ****                     sprintf(status,
  48:main.c        ****                         "\r\nLED is %s\r\nManual events: %lu\r\nAuto events: %lu\r\nTotal handled: 
  49:main.c        ****                         led_Read() ? "ON" : "OFF",
 170              		.loc 1 49 0
 171 00ae FFF7FEFF 		bl	led_Read
 172              	.LVL21:
  47:main.c        ****                         "\r\nLED is %s\r\nManual events: %lu\r\nAuto events: %lu\r\nTotal handled: 
 173              		.loc 1 47 0
ARM GAS  C:\Users\karthik\AppData\Local\Temp\ccBxkHhd.s 			page 5


 174 00b2 08B1     		cbz	r0, .L20
 175 00b4 3D4A     		ldr	r2, .L23+44
 176 00b6 00E0     		b	.L12
 177              	.L20:
 178 00b8 3D4A     		ldr	r2, .L23+48
 179              	.L12:
  47:main.c        ****                         "\r\nLED is %s\r\nManual events: %lu\r\nAuto events: %lu\r\nTotal handled: 
 180              		.loc 1 47 0 is_stmt 0 discriminator 4
 181 00ba 3449     		ldr	r1, .L23+12
 182 00bc 0B68     		ldr	r3, [r1]
 183 00be 8868     		ldr	r0, [r1, #8]
 184 00c0 C968     		ldr	r1, [r1, #12]
 185 00c2 0191     		str	r1, [sp, #4]
 186 00c4 0090     		str	r0, [sp]
 187 00c6 3B49     		ldr	r1, .L23+52
 188 00c8 02A8     		add	r0, sp, #8
 189 00ca FFF7FEFF 		bl	sprintf
 190              	.LVL22:
  50:main.c        ****                         manual_event_count,
  51:main.c        ****                         auto_event_count,
  52:main.c        ****                         total_events_handled
  53:main.c        ****                     );
  54:main.c        ****                     UART_PutString(status);
 191              		.loc 1 54 0 is_stmt 1 discriminator 4
 192 00ce 02A8     		add	r0, sp, #8
 193 00d0 FFF7FEFF 		bl	UART_PutString
 194              	.LVL23:
 195              	.LBE5:
  27:main.c        **** 
 196              		.loc 1 27 0 discriminator 4
 197 00d4 0024     		movs	r4, #0
 198 00d6 4FE0     		b	.L2
 199              	.L11:
  55:main.c        ****                 } else if (strcasecmp(buffer, "reset") == 0) {
 200              		.loc 1 55 0
 201 00d8 3749     		ldr	r1, .L23+56
 202 00da 22A8     		add	r0, sp, #136
 203 00dc FFF7FEFF 		bl	strcasecmp
 204              	.LVL24:
 205 00e0 40B9     		cbnz	r0, .L13
  56:main.c        ****                     manual_event_count = 0;
 206              		.loc 1 56 0
 207 00e2 2A4B     		ldr	r3, .L23+12
 208 00e4 0024     		movs	r4, #0
 209 00e6 1C60     		str	r4, [r3]
  57:main.c        ****                     auto_event_count = 0;
 210              		.loc 1 57 0
 211 00e8 9C60     		str	r4, [r3, #8]
  58:main.c        ****                     total_events_handled = 0;
 212              		.loc 1 58 0
 213 00ea DC60     		str	r4, [r3, #12]
  59:main.c        ****                     UART_PutString("\r\nCounters reset\r\n");
 214              		.loc 1 59 0
 215 00ec 3348     		ldr	r0, .L23+60
 216 00ee FFF7FEFF 		bl	UART_PutString
 217              	.LVL25:
 218 00f2 41E0     		b	.L2
ARM GAS  C:\Users\karthik\AppData\Local\Temp\ccBxkHhd.s 			page 6


 219              	.L13:
  60:main.c        ****                 } else if (strcasecmp(buffer, "on") == 0) {
 220              		.loc 1 60 0
 221 00f4 3249     		ldr	r1, .L23+64
 222 00f6 22A8     		add	r0, sp, #136
 223 00f8 FFF7FEFF 		bl	strcasecmp
 224              	.LVL26:
 225 00fc 38B9     		cbnz	r0, .L14
  61:main.c        ****                     led_Write(1);
 226              		.loc 1 61 0
 227 00fe 0120     		movs	r0, #1
 228 0100 FFF7FEFF 		bl	led_Write
 229              	.LVL27:
  62:main.c        ****                     UART_PutString("\r\nLED forced ON\r\n");
 230              		.loc 1 62 0
 231 0104 2F48     		ldr	r0, .L23+68
 232 0106 FFF7FEFF 		bl	UART_PutString
 233              	.LVL28:
  27:main.c        **** 
 234              		.loc 1 27 0
 235 010a 0024     		movs	r4, #0
 236 010c 34E0     		b	.L2
 237              	.L14:
  63:main.c        ****                 } else if (strcasecmp(buffer, "off") == 0) {
 238              		.loc 1 63 0
 239 010e 2E49     		ldr	r1, .L23+72
 240 0110 22A8     		add	r0, sp, #136
 241 0112 FFF7FEFF 		bl	strcasecmp
 242              	.LVL29:
 243 0116 30B9     		cbnz	r0, .L15
  64:main.c        ****                     led_Write(0);
 244              		.loc 1 64 0
 245 0118 FFF7FEFF 		bl	led_Write
 246              	.LVL30:
  65:main.c        ****                     UART_PutString("\r\nLED forced OFF\r\n");
 247              		.loc 1 65 0
 248 011c 2B48     		ldr	r0, .L23+76
 249 011e FFF7FEFF 		bl	UART_PutString
 250              	.LVL31:
  27:main.c        **** 
 251              		.loc 1 27 0
 252 0122 0024     		movs	r4, #0
 253 0124 28E0     		b	.L2
 254              	.L15:
  66:main.c        ****                 } else if (strcasecmp(buffer, "sleep") == 0) {
 255              		.loc 1 66 0
 256 0126 2A49     		ldr	r1, .L23+80
 257 0128 22A8     		add	r0, sp, #136
 258 012a FFF7FEFF 		bl	strcasecmp
 259              	.LVL32:
 260 012e 30B9     		cbnz	r0, .L16
  67:main.c        ****                     led_enabled = 0;
 261              		.loc 1 67 0
 262 0130 0024     		movs	r4, #0
 263 0132 144B     		ldr	r3, .L23+4
 264 0134 1C70     		strb	r4, [r3]
  68:main.c        ****                     UART_PutString("\r\nLED sleep mode activated\r\n");
ARM GAS  C:\Users\karthik\AppData\Local\Temp\ccBxkHhd.s 			page 7


 265              		.loc 1 68 0
 266 0136 2748     		ldr	r0, .L23+84
 267 0138 FFF7FEFF 		bl	UART_PutString
 268              	.LVL33:
 269 013c 1CE0     		b	.L2
 270              	.L16:
  69:main.c        ****                 } else if (strcasecmp(buffer, "normal") == 0) {
 271              		.loc 1 69 0
 272 013e 2649     		ldr	r1, .L23+88
 273 0140 22A8     		add	r0, sp, #136
 274 0142 FFF7FEFF 		bl	strcasecmp
 275              	.LVL34:
 276 0146 38B9     		cbnz	r0, .L17
  70:main.c        ****                     led_enabled = 1;
 277              		.loc 1 70 0
 278 0148 0122     		movs	r2, #1
 279 014a 0E4B     		ldr	r3, .L23+4
 280 014c 1A70     		strb	r2, [r3]
  71:main.c        ****                     UART_PutString("\r\nLED toggle re-enabled\r\n");
 281              		.loc 1 71 0
 282 014e 2348     		ldr	r0, .L23+92
 283 0150 FFF7FEFF 		bl	UART_PutString
 284              	.LVL35:
  27:main.c        **** 
 285              		.loc 1 27 0
 286 0154 0024     		movs	r4, #0
 287 0156 0FE0     		b	.L2
 288              	.L17:
  72:main.c        ****                 } else {
  73:main.c        ****                     UART_PutString("\r\nUnknown command\r\n");
 289              		.loc 1 73 0
 290 0158 2148     		ldr	r0, .L23+96
 291 015a FFF7FEFF 		bl	UART_PutString
 292              	.LVL36:
  27:main.c        **** 
 293              		.loc 1 27 0
 294 015e 0024     		movs	r4, #0
 295 0160 0AE0     		b	.L2
 296              	.LVL37:
 297              	.L4:
  74:main.c        ****                 }
  75:main.c        ****             } else if (index < sizeof(buffer) - 1) {
 298              		.loc 1 75 0
 299 0162 1E2C     		cmp	r4, #30
 300 0164 08D8     		bhi	.L2
  76:main.c        ****                 buffer[index++] = ch;
 301              		.loc 1 76 0
 302 0166 651C     		adds	r5, r4, #1
 303 0168 EDB2     		uxtb	r5, r5
 304              	.LVL38:
 305 016a 2AAB     		add	r3, sp, #168
 306 016c 1C44     		add	r4, r4, r3
 307 016e 04F8200C 		strb	r0, [r4, #-32]
  77:main.c        ****                 UART_PutChar(ch);
 308              		.loc 1 77 0
 309 0172 FFF7FEFF 		bl	UART_PutChar
 310              	.LVL39:
ARM GAS  C:\Users\karthik\AppData\Local\Temp\ccBxkHhd.s 			page 8


  76:main.c        ****                 buffer[index++] = ch;
 311              		.loc 1 76 0
 312 0176 2C46     		mov	r4, r5
 313              	.LVL40:
 314              	.L2:
  78:main.c        ****             }
  79:main.c        ****         }
  80:main.c        ****         vTaskDelay(10);
 315              		.loc 1 80 0
 316 0178 0A20     		movs	r0, #10
 317 017a FFF7FEFF 		bl	vTaskDelay
 318              	.LVL41:
 319              	.LBE2:
  81:main.c        ****     }
 320              		.loc 1 81 0
 321 017e 42E7     		b	.L18
 322              	.L24:
 323              		.align	2
 324              	.L23:
 325 0180 08000000 		.word	.LC2
 326 0184 00000000 		.word	.LANCHOR0
 327 0188 00000000 		.word	toggle_semaphore
 328 018c 00000000 		.word	.LANCHOR1
 329 0190 10000000 		.word	.LC3
 330 0194 34000000 		.word	.LC4
 331 0198 54000000 		.word	.LC5
 332 019c 5C000000 		.word	.LC6
 333 01a0 74000000 		.word	.LC7
 334 01a4 80000000 		.word	.LC8
 335 01a8 9C000000 		.word	.LC9
 336 01ac 00000000 		.word	.LC0
 337 01b0 04000000 		.word	.LC1
 338 01b4 A4000000 		.word	.LC10
 339 01b8 EC000000 		.word	.LC11
 340 01bc F4000000 		.word	.LC12
 341 01c0 08010000 		.word	.LC13
 342 01c4 0C010000 		.word	.LC14
 343 01c8 20010000 		.word	.LC15
 344 01cc 24010000 		.word	.LC16
 345 01d0 38010000 		.word	.LC17
 346 01d4 40010000 		.word	.LC18
 347 01d8 60010000 		.word	.LC19
 348 01dc 68010000 		.word	.LC20
 349 01e0 84010000 		.word	.LC21
 350              		.cfi_endproc
 351              	.LFE69:
 352              		.size	uart_input_task, .-uart_input_task
 353              		.section	.text.auto_event_task,"ax",%progbits
 354              		.align	2
 355              		.global	auto_event_task
 356              		.thumb
 357              		.thumb_func
 358              		.type	auto_event_task, %function
 359              	auto_event_task:
 360              	.LFB71:
  82:main.c        **** }
  83:main.c        **** 
ARM GAS  C:\Users\karthik\AppData\Local\Temp\ccBxkHhd.s 			page 9


  84:main.c        **** void led_task(void *ptr) {
  85:main.c        ****     while (1) {
  86:main.c        ****         if (xSemaphoreTake(toggle_semaphore, portMAX_DELAY) == pdTRUE) {
  87:main.c        ****             if (led_enabled) {
  88:main.c        ****                 led_Write(!led_Read());
  89:main.c        ****                 total_events_handled++;
  90:main.c        ****                 char msg[64];
  91:main.c        ****                 sprintf(msg, "Event #%lu -> LED %s\r\n",
  92:main.c        ****                         total_events_handled,
  93:main.c        ****                         led_Read() ? "ON" : "OFF");
  94:main.c        ****                 UART_PutString(msg);
  95:main.c        ****             } else {
  96:main.c        ****                 UART_PutString("Event ignored (LED in sleep mode)\r\n");
  97:main.c        ****             }
  98:main.c        ****             vTaskDelay(250);
  99:main.c        ****         }
 100:main.c        ****     }
 101:main.c        **** }
 102:main.c        **** 
 103:main.c        **** void auto_event_task(void *ptr) {
 361              		.loc 1 103 0
 362              		.cfi_startproc
 363              		@ Volatile: function does not return.
 364              		@ args = 0, pretend = 0, frame = 0
 365              		@ frame_needed = 0, uses_anonymous_args = 0
 366              	.LVL42:
 367 0000 08B5     		push	{r3, lr}
 368              		.cfi_def_cfa_offset 8
 369              		.cfi_offset 3, -8
 370              		.cfi_offset 14, -4
 371              	.LVL43:
 372              	.L27:
 104:main.c        ****     while (1) {
 105:main.c        ****         if (auto_mode) {
 373              		.loc 1 105 0
 374 0002 0A4B     		ldr	r3, .L29
 375 0004 1B79     		ldrb	r3, [r3, #4]	@ zero_extendqisi2
 376 0006 13F0FF0F 		tst	r3, #255
 377 000a 0AD0     		beq	.L26
 106:main.c        ****             xSemaphoreGive(toggle_semaphore);
 378              		.loc 1 106 0
 379 000c 0023     		movs	r3, #0
 380 000e 1A46     		mov	r2, r3
 381 0010 1946     		mov	r1, r3
 382 0012 0748     		ldr	r0, .L29+4
 383 0014 0068     		ldr	r0, [r0]
 384 0016 FFF7FEFF 		bl	xQueueGenericSend
 385              	.LVL44:
 107:main.c        ****             auto_event_count++;
 386              		.loc 1 107 0
 387 001a 044A     		ldr	r2, .L29
 388 001c 9368     		ldr	r3, [r2, #8]
 389 001e 0133     		adds	r3, r3, #1
 390 0020 9360     		str	r3, [r2, #8]
 391              	.L26:
 108:main.c        ****         }
 109:main.c        ****         vTaskDelay(1000); // One auto event every second
ARM GAS  C:\Users\karthik\AppData\Local\Temp\ccBxkHhd.s 			page 10


 392              		.loc 1 109 0
 393 0022 4FF47A70 		mov	r0, #1000
 394 0026 FFF7FEFF 		bl	vTaskDelay
 395              	.LVL45:
 110:main.c        ****     }
 396              		.loc 1 110 0
 397 002a EAE7     		b	.L27
 398              	.L30:
 399              		.align	2
 400              	.L29:
 401 002c 00000000 		.word	.LANCHOR1
 402 0030 00000000 		.word	toggle_semaphore
 403              		.cfi_endproc
 404              	.LFE71:
 405              		.size	auto_event_task, .-auto_event_task
 406              		.section	.text.led_task,"ax",%progbits
 407              		.align	2
 408              		.global	led_task
 409              		.thumb
 410              		.thumb_func
 411              		.type	led_task, %function
 412              	led_task:
 413              	.LFB70:
  84:main.c        ****     while (1) {
 414              		.loc 1 84 0
 415              		.cfi_startproc
 416              		@ args = 0, pretend = 0, frame = 64
 417              		@ frame_needed = 0, uses_anonymous_args = 0
 418              	.LVL46:
 419 0000 10B5     		push	{r4, lr}
 420              		.cfi_def_cfa_offset 8
 421              		.cfi_offset 4, -8
 422              		.cfi_offset 14, -4
 423 0002 90B0     		sub	sp, sp, #64
 424              		.cfi_def_cfa_offset 72
 425              	.LVL47:
 426              	.L32:
  86:main.c        ****             if (led_enabled) {
 427              		.loc 1 86 0
 428 0004 4FF0FF31 		mov	r1, #-1
 429 0008 164B     		ldr	r3, .L39
 430 000a 1868     		ldr	r0, [r3]
 431 000c FFF7FEFF 		bl	xQueueSemaphoreTake
 432              	.LVL48:
 433 0010 0128     		cmp	r0, #1
 434 0012 F7D1     		bne	.L32
  87:main.c        ****                 led_Write(!led_Read());
 435              		.loc 1 87 0
 436 0014 144B     		ldr	r3, .L39+4
 437 0016 1B78     		ldrb	r3, [r3]	@ zero_extendqisi2
 438 0018 13F0FF0F 		tst	r3, #255
 439 001c 1AD0     		beq	.L33
 440              	.LBB6:
  88:main.c        ****                 total_events_handled++;
 441              		.loc 1 88 0
 442 001e FFF7FEFF 		bl	led_Read
 443              	.LVL49:
ARM GAS  C:\Users\karthik\AppData\Local\Temp\ccBxkHhd.s 			page 11


 444 0022 B0FA80F0 		clz	r0, r0
 445 0026 4009     		lsrs	r0, r0, #5
 446 0028 FFF7FEFF 		bl	led_Write
 447              	.LVL50:
  89:main.c        ****                 char msg[64];
 448              		.loc 1 89 0
 449 002c 0F4B     		ldr	r3, .L39+8
 450 002e DA68     		ldr	r2, [r3, #12]
 451 0030 0132     		adds	r2, r2, #1
 452 0032 DA60     		str	r2, [r3, #12]
  91:main.c        ****                         total_events_handled,
 453              		.loc 1 91 0
 454 0034 DC68     		ldr	r4, [r3, #12]
  93:main.c        ****                 UART_PutString(msg);
 455              		.loc 1 93 0
 456 0036 FFF7FEFF 		bl	led_Read
 457              	.LVL51:
  91:main.c        ****                         total_events_handled,
 458              		.loc 1 91 0
 459 003a 08B1     		cbz	r0, .L37
 460 003c 0C4B     		ldr	r3, .L39+12
 461 003e 00E0     		b	.L34
 462              	.L37:
 463 0040 0C4B     		ldr	r3, .L39+16
 464              	.L34:
  91:main.c        ****                         total_events_handled,
 465              		.loc 1 91 0 is_stmt 0 discriminator 4
 466 0042 2246     		mov	r2, r4
 467 0044 0C49     		ldr	r1, .L39+20
 468 0046 6846     		mov	r0, sp
 469 0048 FFF7FEFF 		bl	sprintf
 470              	.LVL52:
  94:main.c        ****             } else {
 471              		.loc 1 94 0 is_stmt 1 discriminator 4
 472 004c 6846     		mov	r0, sp
 473 004e FFF7FEFF 		bl	UART_PutString
 474              	.LVL53:
 475              	.LBE6:
 476 0052 02E0     		b	.L35
 477              	.L33:
  96:main.c        ****             }
 478              		.loc 1 96 0
 479 0054 0948     		ldr	r0, .L39+24
 480 0056 FFF7FEFF 		bl	UART_PutString
 481              	.LVL54:
 482              	.L35:
  98:main.c        ****         }
 483              		.loc 1 98 0
 484 005a FA20     		movs	r0, #250
 485 005c FFF7FEFF 		bl	vTaskDelay
 486              	.LVL55:
 487 0060 D0E7     		b	.L32
 488              	.L40:
 489 0062 00BF     		.align	2
 490              	.L39:
 491 0064 00000000 		.word	toggle_semaphore
 492 0068 00000000 		.word	.LANCHOR0
ARM GAS  C:\Users\karthik\AppData\Local\Temp\ccBxkHhd.s 			page 12


 493 006c 00000000 		.word	.LANCHOR1
 494 0070 00000000 		.word	.LC0
 495 0074 04000000 		.word	.LC1
 496 0078 98010000 		.word	.LC22
 497 007c B0010000 		.word	.LC23
 498              		.cfi_endproc
 499              	.LFE70:
 500              		.size	led_task, .-led_task
 501              		.section	.text.main,"ax",%progbits
 502              		.align	2
 503              		.global	main
 504              		.thumb
 505              		.thumb_func
 506              		.type	main, %function
 507              	main:
 508              	.LFB72:
 111:main.c        **** }
 112:main.c        **** 
 113:main.c        **** int main(void) {
 509              		.loc 1 113 0
 510              		.cfi_startproc
 511              		@ Volatile: function does not return.
 512              		@ args = 0, pretend = 0, frame = 0
 513              		@ frame_needed = 0, uses_anonymous_args = 0
 514 0000 00B5     		push	{lr}
 515              		.cfi_def_cfa_offset 4
 516              		.cfi_offset 14, -4
 517 0002 83B0     		sub	sp, sp, #12
 518              		.cfi_def_cfa_offset 16
 114:main.c        ****     CyGlobalIntEnable;
 519              		.loc 1 114 0
 520              		.syntax unified
 521              	@ 114 "main.c" 1
 522 0004 62B6     		CPSIE   i
 523              	@ 0 "" 2
 115:main.c        ****     FreeRTOS_Start();
 524              		.loc 1 115 0
 525              		.thumb
 526              		.syntax unified
 527 0006 FFF7FEFF 		bl	FreeRTOS_Start
 528              	.LVL56:
 116:main.c        ****     UART_Start();
 529              		.loc 1 116 0
 530 000a FFF7FEFF 		bl	UART_Start
 531              	.LVL57:
 117:main.c        ****     UART_ClearTxBuffer();
 532              		.loc 1 117 0
 533 000e FFF7FEFF 		bl	UART_ClearTxBuffer
 534              	.LVL58:
 118:main.c        **** 
 119:main.c        ****     toggle_semaphore = xSemaphoreCreateCounting(50, 0); // Increase count cap
 535              		.loc 1 119 0
 536 0012 0021     		movs	r1, #0
 537 0014 3220     		movs	r0, #50
 538 0016 FFF7FEFF 		bl	xQueueCreateCountingSemaphore
 539              	.LVL59:
 540 001a 184C     		ldr	r4, .L46
ARM GAS  C:\Users\karthik\AppData\Local\Temp\ccBxkHhd.s 			page 13


 541 001c 2060     		str	r0, [r4]
 120:main.c        **** 
 121:main.c        ****     UART_PutString("Commands:\r\n");
 542              		.loc 1 121 0
 543 001e 1848     		ldr	r0, .L46+4
 544 0020 FFF7FEFF 		bl	UART_PutString
 545              	.LVL60:
 122:main.c        ****     UART_PutString(" toggle, on, off, status, reset\r\n");
 546              		.loc 1 122 0
 547 0024 1748     		ldr	r0, .L46+8
 548 0026 FFF7FEFF 		bl	UART_PutString
 549              	.LVL61:
 123:main.c        ****     UART_PutString(" auto on, auto off, sleep, normal\r\n");
 550              		.loc 1 123 0
 551 002a 1748     		ldr	r0, .L46+12
 552 002c FFF7FEFF 		bl	UART_PutString
 553              	.LVL62:
 124:main.c        **** 
 125:main.c        ****     if(toggle_semaphore == NULL) {
 554              		.loc 1 125 0
 555 0030 2368     		ldr	r3, [r4]
 556 0032 1BB9     		cbnz	r3, .L42
 126:main.c        ****         UART_PutString("Semaphore creation failed\r\n");
 557              		.loc 1 126 0
 558 0034 1548     		ldr	r0, .L46+16
 559 0036 FFF7FEFF 		bl	UART_PutString
 560              	.LVL63:
 561              	.L43:
 562 003a FEE7     		b	.L43
 563              	.L42:
 127:main.c        ****         while(1);
 128:main.c        ****     }
 129:main.c        **** 
 130:main.c        ****     xTaskCreate(uart_input_task, "UART Task", 300, NULL, 3, NULL);
 564              		.loc 1 130 0
 565 003c 0024     		movs	r4, #0
 566 003e 0194     		str	r4, [sp, #4]
 567 0040 0323     		movs	r3, #3
 568 0042 0093     		str	r3, [sp]
 569 0044 2346     		mov	r3, r4
 570 0046 4FF49672 		mov	r2, #300
 571 004a 1149     		ldr	r1, .L46+20
 572 004c 1148     		ldr	r0, .L46+24
 573 004e FFF7FEFF 		bl	xTaskCreate
 574              	.LVL64:
 131:main.c        ****     xTaskCreate(led_task, "LED Task", 200, NULL, 2, NULL);
 575              		.loc 1 131 0
 576 0052 0194     		str	r4, [sp, #4]
 577 0054 0223     		movs	r3, #2
 578 0056 0093     		str	r3, [sp]
 579 0058 2346     		mov	r3, r4
 580 005a C822     		movs	r2, #200
 581 005c 0E49     		ldr	r1, .L46+28
 582 005e 0F48     		ldr	r0, .L46+32
 583 0060 FFF7FEFF 		bl	xTaskCreate
 584              	.LVL65:
 132:main.c        ****     xTaskCreate(auto_event_task, "Auto Task", 200, NULL, 1, NULL);
ARM GAS  C:\Users\karthik\AppData\Local\Temp\ccBxkHhd.s 			page 14


 585              		.loc 1 132 0
 586 0064 0194     		str	r4, [sp, #4]
 587 0066 0123     		movs	r3, #1
 588 0068 0093     		str	r3, [sp]
 589 006a 2346     		mov	r3, r4
 590 006c C822     		movs	r2, #200
 591 006e 0C49     		ldr	r1, .L46+36
 592 0070 0C48     		ldr	r0, .L46+40
 593 0072 FFF7FEFF 		bl	xTaskCreate
 594              	.LVL66:
 133:main.c        **** 
 134:main.c        ****     vTaskStartScheduler();
 595              		.loc 1 134 0
 596 0076 FFF7FEFF 		bl	vTaskStartScheduler
 597              	.LVL67:
 598              	.L44:
 599 007a FEE7     		b	.L44
 600              	.L47:
 601              		.align	2
 602              	.L46:
 603 007c 00000000 		.word	toggle_semaphore
 604 0080 D4010000 		.word	.LC24
 605 0084 E0010000 		.word	.LC25
 606 0088 04020000 		.word	.LC26
 607 008c 28020000 		.word	.LC27
 608 0090 44020000 		.word	.LC28
 609 0094 00000000 		.word	uart_input_task
 610 0098 50020000 		.word	.LC29
 611 009c 00000000 		.word	led_task
 612 00a0 5C020000 		.word	.LC30
 613 00a4 00000000 		.word	auto_event_task
 614              		.cfi_endproc
 615              	.LFE72:
 616              		.size	main, .-main
 617              		.global	total_events_handled
 618              		.global	auto_event_count
 619              		.global	manual_event_count
 620              		.global	auto_mode
 621              		.global	led_enabled
 622              		.comm	toggle_semaphore,4,4
 623              		.data
 624              		.set	.LANCHOR0,. + 0
 625              		.type	led_enabled, %object
 626              		.size	led_enabled, 1
 627              	led_enabled:
 628 0000 01       		.byte	1
 629              		.section	.rodata.str1.4,"aMS",%progbits,1
 630              		.align	2
 631              	.LC0:
 632 0000 4F4E00   		.ascii	"ON\000"
 633 0003 00       		.space	1
 634              	.LC1:
 635 0004 4F464600 		.ascii	"OFF\000"
 636              	.LC2:
 637 0008 746F6767 		.ascii	"toggle\000"
 637      6C6500
 638 000f 00       		.space	1
ARM GAS  C:\Users\karthik\AppData\Local\Temp\ccBxkHhd.s 			page 15


 639              	.LC3:
 640 0010 0D0A5B4D 		.ascii	"\015\012[Manual] 3 toggle events queued\015\012\000"
 640      616E7561 
 640      6C5D2033 
 640      20746F67 
 640      676C6520 
 641              	.LC4:
 642 0034 0D0A4C45 		.ascii	"\015\012LED disabled (sleep mode)\015\012\000"
 642      44206469 
 642      7361626C 
 642      65642028 
 642      736C6565 
 643 0052 0000     		.space	2
 644              	.LC5:
 645 0054 6175746F 		.ascii	"auto on\000"
 645      206F6E00 
 646              	.LC6:
 647 005c 0D0A4175 		.ascii	"\015\012Auto events enabled\015\012\000"
 647      746F2065 
 647      76656E74 
 647      7320656E 
 647      61626C65 
 648              	.LC7:
 649 0074 6175746F 		.ascii	"auto off\000"
 649      206F6666 
 649      00
 650 007d 000000   		.space	3
 651              	.LC8:
 652 0080 0D0A4175 		.ascii	"\015\012Auto events disabled\015\012\000"
 652      746F2065 
 652      76656E74 
 652      73206469 
 652      7361626C 
 653 0099 000000   		.space	3
 654              	.LC9:
 655 009c 73746174 		.ascii	"status\000"
 655      757300
 656 00a3 00       		.space	1
 657              	.LC10:
 658 00a4 0D0A4C45 		.ascii	"\015\012LED is %s\015\012Manual events: %lu\015\012"
 658      44206973 
 658      2025730D 
 658      0A4D616E 
 658      75616C20 
 659 00c5 4175746F 		.ascii	"Auto events: %lu\015\012Total handled: %lu\015\012\000"
 659      20657665 
 659      6E74733A 
 659      20256C75 
 659      0D0A546F 
 660              	.LC11:
 661 00ec 72657365 		.ascii	"reset\000"
 661      7400
 662 00f2 0000     		.space	2
 663              	.LC12:
 664 00f4 0D0A436F 		.ascii	"\015\012Counters reset\015\012\000"
 664      756E7465 
 664      72732072 
ARM GAS  C:\Users\karthik\AppData\Local\Temp\ccBxkHhd.s 			page 16


 664      65736574 
 664      0D0A00
 665 0107 00       		.space	1
 666              	.LC13:
 667 0108 6F6E00   		.ascii	"on\000"
 668 010b 00       		.space	1
 669              	.LC14:
 670 010c 0D0A4C45 		.ascii	"\015\012LED forced ON\015\012\000"
 670      4420666F 
 670      72636564 
 670      204F4E0D 
 670      0A00
 671 011e 0000     		.space	2
 672              	.LC15:
 673 0120 6F666600 		.ascii	"off\000"
 674              	.LC16:
 675 0124 0D0A4C45 		.ascii	"\015\012LED forced OFF\015\012\000"
 675      4420666F 
 675      72636564 
 675      204F4646 
 675      0D0A00
 676 0137 00       		.space	1
 677              	.LC17:
 678 0138 736C6565 		.ascii	"sleep\000"
 678      7000
 679 013e 0000     		.space	2
 680              	.LC18:
 681 0140 0D0A4C45 		.ascii	"\015\012LED sleep mode activated\015\012\000"
 681      4420736C 
 681      65657020 
 681      6D6F6465 
 681      20616374 
 682 015d 000000   		.space	3
 683              	.LC19:
 684 0160 6E6F726D 		.ascii	"normal\000"
 684      616C00
 685 0167 00       		.space	1
 686              	.LC20:
 687 0168 0D0A4C45 		.ascii	"\015\012LED toggle re-enabled\015\012\000"
 687      4420746F 
 687      67676C65 
 687      2072652D 
 687      656E6162 
 688 0182 0000     		.space	2
 689              	.LC21:
 690 0184 0D0A556E 		.ascii	"\015\012Unknown command\015\012\000"
 690      6B6E6F77 
 690      6E20636F 
 690      6D6D616E 
 690      640D0A00 
 691              	.LC22:
 692 0198 4576656E 		.ascii	"Event #%lu -> LED %s\015\012\000"
 692      74202325 
 692      6C75202D 
 692      3E204C45 
 692      44202573 
 693 01af 00       		.space	1
ARM GAS  C:\Users\karthik\AppData\Local\Temp\ccBxkHhd.s 			page 17


 694              	.LC23:
 695 01b0 4576656E 		.ascii	"Event ignored (LED in sleep mode)\015\012\000"
 695      74206967 
 695      6E6F7265 
 695      6420284C 
 695      45442069 
 696              	.LC24:
 697 01d4 436F6D6D 		.ascii	"Commands:\015\012\000"
 697      616E6473 
 697      3A0D0A00 
 698              	.LC25:
 699 01e0 20746F67 		.ascii	" toggle, on, off, status, reset\015\012\000"
 699      676C652C 
 699      206F6E2C 
 699      206F6666 
 699      2C207374 
 700 0202 0000     		.space	2
 701              	.LC26:
 702 0204 20617574 		.ascii	" auto on, auto off, sleep, normal\015\012\000"
 702      6F206F6E 
 702      2C206175 
 702      746F206F 
 702      66662C20 
 703              	.LC27:
 704 0228 53656D61 		.ascii	"Semaphore creation failed\015\012\000"
 704      70686F72 
 704      65206372 
 704      65617469 
 704      6F6E2066 
 705              	.LC28:
 706 0244 55415254 		.ascii	"UART Task\000"
 706      20546173 
 706      6B00
 707 024e 0000     		.space	2
 708              	.LC29:
 709 0250 4C454420 		.ascii	"LED Task\000"
 709      5461736B 
 709      00
 710 0259 000000   		.space	3
 711              	.LC30:
 712 025c 4175746F 		.ascii	"Auto Task\000"
 712      20546173 
 712      6B00
 713              		.bss
 714              		.align	2
 715              		.set	.LANCHOR1,. + 0
 716              		.type	manual_event_count, %object
 717              		.size	manual_event_count, 4
 718              	manual_event_count:
 719 0000 00000000 		.space	4
 720              		.type	auto_mode, %object
 721              		.size	auto_mode, 1
 722              	auto_mode:
 723 0004 00       		.space	1
 724 0005 000000   		.space	3
 725              		.type	auto_event_count, %object
 726              		.size	auto_event_count, 4
ARM GAS  C:\Users\karthik\AppData\Local\Temp\ccBxkHhd.s 			page 18


 727              	auto_event_count:
 728 0008 00000000 		.space	4
 729              		.type	total_events_handled, %object
 730              		.size	total_events_handled, 4
 731              	total_events_handled:
 732 000c 00000000 		.space	4
 733              		.text
 734              	.Letext0:
 735              		.file 2 "c:\\program files (x86)\\cypress\\psoc creator\\4.4\\psoc creator\\import\\gnu\\arm\\5.4.
 736              		.file 3 "c:\\program files (x86)\\cypress\\psoc creator\\4.4\\psoc creator\\import\\gnu\\arm\\5.4.
 737              		.file 4 "..\\FreeRTOS\\Source\\portable\\GCC\\ARM_CM3/portmacro.h"
 738              		.file 5 "..\\FreeRTOS\\Source\\include/queue.h"
 739              		.file 6 "..\\FreeRTOS\\Source\\include/semphr.h"
 740              		.file 7 "Generated_Source\\PSoC5/core_cm3.h"
 741              		.file 8 "Generated_Source\\PSoC5/led.h"
 742              		.file 9 "c:\\program files (x86)\\cypress\\psoc creator\\4.4\\psoc creator\\import\\gnu\\arm\\5.4.
 743              		.file 10 "Generated_Source\\PSoC5/UART.h"
 744              		.file 11 "c:\\program files (x86)\\cypress\\psoc creator\\4.4\\psoc creator\\import\\gnu\\arm\\5.4
 745              		.file 12 "..\\FreeRTOS\\Source\\include/task.h"