ARM GAS  C:\Users\karthik\AppData\Local\Temp\ccE3npYv.s 			page 1


   1              		.syntax unified
   2              		.cpu cortex-m3
   3              		.fpu softvfp
   4              		.eabi_attribute 20, 1
   5              		.eabi_attribute 21, 1
   6              		.eabi_attribute 23, 3
   7              		.eabi_attribute 24, 1
   8              		.eabi_attribute 25, 1
   9              		.eabi_attribute 26, 1
  10              		.eabi_attribute 30, 1
  11              		.eabi_attribute 34, 1
  12              		.eabi_attribute 18, 4
  13              		.thumb
  14              		.syntax unified
  15              		.file	"main.c"
  16              		.text
  17              	.Ltext0:
  18              		.cfi_sections	.debug_frame
  19              		.section	.text.getPseudoRandom,"ax",%progbits
  20              		.align	2
  21              		.global	getPseudoRandom
  22              		.thumb
  23              		.thumb_func
  24              		.type	getPseudoRandom, %function
  25              	getPseudoRandom:
  26              	.LFB64:
  27              		.file 1 "main.c"
   1:main.c        **** #include "project.h" //User defined header file
   2:main.c        **** #include <stdio.h> // Header file to use standard input and output functions
   3:main.c        **** #include <string.h> // Header file to use string functions
   4:main.c        **** 
   5:main.c        **** // Sensor structure
   6:main.c        **** typedef struct {
   7:main.c        ****     char name[20];
   8:main.c        ****     float value;
   9:main.c        ****     char unit[10];
  10:main.c        **** } Sensor;
  11:main.c        **** 
  12:main.c        **** // Simple 16-bit LFSR-based pseudo-random number generator
  13:main.c        **** uint16_t lfsr = 0xACE1u;
  14:main.c        **** uint16_t bit;
  15:main.c        **** 
  16:main.c        **** uint16_t getPseudoRandom() {
  28              		.loc 1 16 0
  29              		.cfi_startproc
  30              		@ args = 0, pretend = 0, frame = 0
  31              		@ frame_needed = 0, uses_anonymous_args = 0
  32              		@ link register save eliminated.
  17:main.c        ****     bit  = ((lfsr >> 0) ^ (lfsr >> 2) ^ (lfsr >> 3) ^ (lfsr >> 5)) & 1;
  33              		.loc 1 17 0
  34 0000 084A     		ldr	r2, .L2
  35 0002 1388     		ldrh	r3, [r2]
  36 0004 83EA9300 		eor	r0, r3, r3, lsr #2
  37 0008 80EAD300 		eor	r0, r0, r3, lsr #3
  38 000c 80EA5310 		eor	r0, r0, r3, lsr #5
  39 0010 00F00100 		and	r0, r0, #1
  40 0014 0449     		ldr	r1, .L2+4
ARM GAS  C:\Users\karthik\AppData\Local\Temp\ccE3npYv.s 			page 2


  41 0016 0880     		strh	r0, [r1]	@ movhi
  18:main.c        ****     lfsr = (lfsr >> 1) | (bit << 15);
  42              		.loc 1 18 0
  43 0018 5B08     		lsrs	r3, r3, #1
  44 001a 43EAC030 		orr	r0, r3, r0, lsl #15
  45 001e 1080     		strh	r0, [r2]	@ movhi
  19:main.c        ****     return lfsr;
  20:main.c        **** }
  46              		.loc 1 20 0
  47 0020 7047     		bx	lr
  48              	.L3:
  49 0022 00BF     		.align	2
  50              	.L2:
  51 0024 00000000 		.word	.LANCHOR0
  52 0028 00000000 		.word	bit
  53              		.cfi_endproc
  54              	.LFE64:
  55              		.size	getPseudoRandom, .-getPseudoRandom
  56              		.global	__aeabi_i2d
  57              		.global	__aeabi_ddiv
  58              		.global	__aeabi_dadd
  59              		.global	__aeabi_d2f
  60              		.section	.text.getDummyValue,"ax",%progbits
  61              		.align	2
  62              		.global	getDummyValue
  63              		.thumb
  64              		.thumb_func
  65              		.type	getDummyValue, %function
  66              	getDummyValue:
  67              	.LFB65:
  21:main.c        **** 
  22:main.c        **** float getDummyValue(const char *name) {
  68              		.loc 1 22 0
  69              		.cfi_startproc
  70              		@ args = 0, pretend = 0, frame = 0
  71              		@ frame_needed = 0, uses_anonymous_args = 0
  72              	.LVL0:
  73 0000 38B5     		push	{r3, r4, r5, lr}
  74              		.cfi_def_cfa_offset 16
  75              		.cfi_offset 3, -16
  76              		.cfi_offset 4, -12
  77              		.cfi_offset 5, -8
  78              		.cfi_offset 14, -4
  79 0002 0446     		mov	r4, r0
  23:main.c        ****     uint16_t r = getPseudoRandom();
  80              		.loc 1 23 0
  81 0004 FFF7FEFF 		bl	getPseudoRandom
  82              	.LVL1:
  83 0008 0546     		mov	r5, r0
  84              	.LVL2:
  24:main.c        ****     if (strcmp(name, "Temperature") == 0) return 25.0 + (r % 100) / 10.0;
  85              		.loc 1 24 0
  86 000a 2B49     		ldr	r1, .L10+8
  87 000c 2046     		mov	r0, r4
  88 000e FFF7FEFF 		bl	strcmp
  89              	.LVL3:
  90 0012 A0B9     		cbnz	r0, .L5
ARM GAS  C:\Users\karthik\AppData\Local\Temp\ccE3npYv.s 			page 3


  91              		.loc 1 24 0 is_stmt 0 discriminator 1
  92 0014 2948     		ldr	r0, .L10+12
  93 0016 A0FB0530 		umull	r3, r0, r0, r5
  94 001a 4309     		lsrs	r3, r0, #5
  95 001c 6420     		movs	r0, #100
  96 001e 00FB1350 		mls	r0, r0, r3, r5
  97 0022 80B2     		uxth	r0, r0
  98 0024 FFF7FEFF 		bl	__aeabi_i2d
  99              	.LVL4:
 100 0028 0022     		movs	r2, #0
 101 002a 254B     		ldr	r3, .L10+16
 102 002c FFF7FEFF 		bl	__aeabi_ddiv
 103              	.LVL5:
 104 0030 0022     		movs	r2, #0
 105 0032 244B     		ldr	r3, .L10+20
 106 0034 FFF7FEFF 		bl	__aeabi_dadd
 107              	.LVL6:
 108 0038 FFF7FEFF 		bl	__aeabi_d2f
 109              	.LVL7:
 110 003c 38BD     		pop	{r3, r4, r5, pc}
 111              	.LVL8:
 112              	.L5:
  25:main.c        ****     if (strcmp(name, "Pressure") == 0) return 101.3 + (r % 50) / 10.0;
 113              		.loc 1 25 0 is_stmt 1
 114 003e 2249     		ldr	r1, .L10+24
 115 0040 2046     		mov	r0, r4
 116 0042 FFF7FEFF 		bl	strcmp
 117              	.LVL9:
 118 0046 A8B9     		cbnz	r0, .L7
 119              		.loc 1 25 0 is_stmt 0 discriminator 1
 120 0048 1C48     		ldr	r0, .L10+12
 121 004a A0FB0530 		umull	r3, r0, r0, r5
 122 004e 0309     		lsrs	r3, r0, #4
 123 0050 3220     		movs	r0, #50
 124 0052 00FB1350 		mls	r0, r0, r3, r5
 125 0056 80B2     		uxth	r0, r0
 126 0058 FFF7FEFF 		bl	__aeabi_i2d
 127              	.LVL10:
 128 005c 0022     		movs	r2, #0
 129 005e 184B     		ldr	r3, .L10+16
 130 0060 FFF7FEFF 		bl	__aeabi_ddiv
 131              	.LVL11:
 132 0064 12A3     		adr	r3, .L10
 133 0066 D3E90023 		ldrd	r2, [r3]
 134 006a FFF7FEFF 		bl	__aeabi_dadd
 135              	.LVL12:
 136 006e FFF7FEFF 		bl	__aeabi_d2f
 137              	.LVL13:
 138 0072 38BD     		pop	{r3, r4, r5, pc}
 139              	.LVL14:
 140              	.L7:
  26:main.c        ****     if (strcmp(name, "Humidity") == 0) return 40.0 + (r % 200) / 10.0;
 141              		.loc 1 26 0 is_stmt 1
 142 0074 1549     		ldr	r1, .L10+28
 143 0076 2046     		mov	r0, r4
 144 0078 FFF7FEFF 		bl	strcmp
 145              	.LVL15:
ARM GAS  C:\Users\karthik\AppData\Local\Temp\ccE3npYv.s 			page 4


 146 007c A0B9     		cbnz	r0, .L8
 147              		.loc 1 26 0 is_stmt 0 discriminator 1
 148 007e 0F48     		ldr	r0, .L10+12
 149 0080 A0FB0530 		umull	r3, r0, r0, r5
 150 0084 8309     		lsrs	r3, r0, #6
 151 0086 C820     		movs	r0, #200
 152 0088 00FB1350 		mls	r0, r0, r3, r5
 153 008c 80B2     		uxth	r0, r0
 154 008e FFF7FEFF 		bl	__aeabi_i2d
 155              	.LVL16:
 156 0092 0022     		movs	r2, #0
 157 0094 0A4B     		ldr	r3, .L10+16
 158 0096 FFF7FEFF 		bl	__aeabi_ddiv
 159              	.LVL17:
 160 009a 0022     		movs	r2, #0
 161 009c 0C4B     		ldr	r3, .L10+32
 162 009e FFF7FEFF 		bl	__aeabi_dadd
 163              	.LVL18:
 164 00a2 FFF7FEFF 		bl	__aeabi_d2f
 165              	.LVL19:
 166 00a6 38BD     		pop	{r3, r4, r5, pc}
 167              	.LVL20:
 168              	.L8:
  27:main.c        ****     return 0;
 169              		.loc 1 27 0 is_stmt 1
 170 00a8 0020     		movs	r0, #0
  28:main.c        **** }
 171              		.loc 1 28 0
 172 00aa 38BD     		pop	{r3, r4, r5, pc}
 173              	.LVL21:
 174              	.L11:
 175 00ac AFF30080 		.align	3
 176              	.L10:
 177 00b0 33333333 		.word	858993459
 178 00b4 33535940 		.word	1079595827
 179 00b8 00000000 		.word	.LC1
 180 00bc 1F85EB51 		.word	1374389535
 181 00c0 00002440 		.word	1076101120
 182 00c4 00003940 		.word	1077477376
 183 00c8 0C000000 		.word	.LC2
 184 00cc 18000000 		.word	.LC3
 185 00d0 00004440 		.word	1078198272
 186              		.cfi_endproc
 187              	.LFE65:
 188              		.size	getDummyValue, .-getDummyValue
 189              		.global	__aeabi_fmul
 190              		.global	__aeabi_f2iz
 191              		.section	.text.sendFormattedLineInt,"ax",%progbits
 192              		.align	2
 193              		.global	sendFormattedLineInt
 194              		.thumb
 195              		.thumb_func
 196              		.type	sendFormattedLineInt, %function
 197              	sendFormattedLineInt:
 198              	.LFB66:
  29:main.c        **** 
  30:main.c        **** void sendFormattedLineInt(const char* name, float value, const char* unit) {
ARM GAS  C:\Users\karthik\AppData\Local\Temp\ccE3npYv.s 			page 5


 199              		.loc 1 30 0
 200              		.cfi_startproc
 201              		@ args = 0, pretend = 0, frame = 64
 202              		@ frame_needed = 0, uses_anonymous_args = 0
 203              	.LVL22:
 204 0000 30B5     		push	{r4, r5, lr}
 205              		.cfi_def_cfa_offset 12
 206              		.cfi_offset 4, -12
 207              		.cfi_offset 5, -8
 208              		.cfi_offset 14, -4
 209 0002 93B0     		sub	sp, sp, #76
 210              		.cfi_def_cfa_offset 88
 211 0004 0446     		mov	r4, r0
 212 0006 0846     		mov	r0, r1
 213              	.LVL23:
 214 0008 1546     		mov	r5, r2
  31:main.c        ****     char buffer[64];
  32:main.c        ****     int scaled = (int)(value * 10);  // Convert to integer (1 decimal place)
 215              		.loc 1 32 0
 216 000a 0F49     		ldr	r1, .L14
 217              	.LVL24:
 218 000c FFF7FEFF 		bl	__aeabi_fmul
 219              	.LVL25:
 220 0010 FFF7FEFF 		bl	__aeabi_f2iz
 221              	.LVL26:
  33:main.c        ****     sprintf(buffer, "%s: %d.%d %s\r\n", name, scaled / 10, scaled % 10, unit);
 222              		.loc 1 33 0
 223 0014 0D4B     		ldr	r3, .L14+4
 224 0016 83FB0023 		smull	r2, r3, r3, r0
 225 001a C217     		asrs	r2, r0, #31
 226 001c C2EBA303 		rsb	r3, r2, r3, asr #2
 227 0020 0195     		str	r5, [sp, #4]
 228 0022 03EB8301 		add	r1, r3, r3, lsl #2
 229 0026 4A00     		lsls	r2, r1, #1
 230 0028 801A     		subs	r0, r0, r2
 231              	.LVL27:
 232 002a 0090     		str	r0, [sp]
 233 002c 2246     		mov	r2, r4
 234 002e 0849     		ldr	r1, .L14+8
 235 0030 02A8     		add	r0, sp, #8
 236 0032 FFF7FEFF 		bl	sprintf
 237              	.LVL28:
  34:main.c        ****     UART_PutString(buffer);
 238              		.loc 1 34 0
 239 0036 02A8     		add	r0, sp, #8
 240 0038 FFF7FEFF 		bl	UART_PutString
 241              	.LVL29:
  35:main.c        ****     CyDelay(10);
 242              		.loc 1 35 0
 243 003c 0A20     		movs	r0, #10
 244 003e FFF7FEFF 		bl	CyDelay
 245              	.LVL30:
  36:main.c        **** }
 246              		.loc 1 36 0
 247 0042 13B0     		add	sp, sp, #76
 248              		.cfi_def_cfa_offset 12
 249              		@ sp needed
ARM GAS  C:\Users\karthik\AppData\Local\Temp\ccE3npYv.s 			page 6


 250 0044 30BD     		pop	{r4, r5, pc}
 251              	.LVL31:
 252              	.L15:
 253 0046 00BF     		.align	2
 254              	.L14:
 255 0048 00002041 		.word	1092616192
 256 004c 67666666 		.word	1717986919
 257 0050 24000000 		.word	.LC4
 258              		.cfi_endproc
 259              	.LFE66:
 260              		.size	sendFormattedLineInt, .-sendFormattedLineInt
 261              		.section	.text.main,"ax",%progbits
 262              		.align	2
 263              		.global	main
 264              		.thumb
 265              		.thumb_func
 266              		.type	main, %function
 267              	main:
 268              	.LFB67:
  37:main.c        **** 
  38:main.c        **** int main(void) {
 269              		.loc 1 38 0
 270              		.cfi_startproc
 271              		@ args = 0, pretend = 0, frame = 112
 272              		@ frame_needed = 0, uses_anonymous_args = 0
 273 0000 70B5     		push	{r4, r5, r6, lr}
 274              		.cfi_def_cfa_offset 16
 275              		.cfi_offset 4, -16
 276              		.cfi_offset 5, -12
 277              		.cfi_offset 6, -8
 278              		.cfi_offset 14, -4
 279 0002 9CB0     		sub	sp, sp, #112
 280              		.cfi_def_cfa_offset 128
  39:main.c        ****     CyGlobalIntEnable;
 281              		.loc 1 39 0
 282              		.syntax unified
 283              	@ 39 "main.c" 1
 284 0004 62B6     		CPSIE   i
 285              	@ 0 "" 2
  40:main.c        ****     UART_Start();
 286              		.loc 1 40 0
 287              		.thumb
 288              		.syntax unified
 289 0006 FFF7FEFF 		bl	UART_Start
 290              	.LVL32:
  41:main.c        ****     CyDelay(100);  // Allow terminal time to open
 291              		.loc 1 41 0
 292 000a 6420     		movs	r0, #100
 293 000c FFF7FEFF 		bl	CyDelay
 294              	.LVL33:
  42:main.c        **** 
  43:main.c        ****     Sensor sensors[3] = {
 295              		.loc 1 43 0
 296 0010 6C22     		movs	r2, #108
 297 0012 1549     		ldr	r1, .L21
 298 0014 01A8     		add	r0, sp, #4
 299 0016 FFF7FEFF 		bl	memcpy
ARM GAS  C:\Users\karthik\AppData\Local\Temp\ccE3npYv.s 			page 7


 300              	.LVL34:
  44:main.c        ****         {"Temperature", 0, "C"},
  45:main.c        ****         {"Pressure", 0, "kPa"},
  46:main.c        ****         {"Humidity", 0, "%"}
  47:main.c        ****     };
  48:main.c        **** 
  49:main.c        ****     UART_PutString("=== Virtual Sensor Dashboard ===\r\n\r\n");
 301              		.loc 1 49 0
 302 001a 1448     		ldr	r0, .L21+4
 303 001c FFF7FEFF 		bl	UART_PutString
 304              	.LVL35:
 305              	.L19:
 306              	.LBB2:
  50:main.c        **** 
  51:main.c        ****     for (;;) {
  52:main.c        ****         for (int i = 0; i < 3; i++) {
 307              		.loc 1 52 0
 308 0020 0024     		movs	r4, #0
 309 0022 17E0     		b	.L17
 310              	.LVL36:
 311              	.L18:
  53:main.c        ****             sensors[i].value = getDummyValue(sensors[i].name);
 312              		.loc 1 53 0 discriminator 3
 313 0024 E500     		lsls	r5, r4, #3
 314 0026 2B19     		adds	r3, r5, r4
 315 0028 9E00     		lsls	r6, r3, #2
 316 002a 01AB     		add	r3, sp, #4
 317 002c 1E44     		add	r6, r6, r3
 318 002e 3046     		mov	r0, r6
 319 0030 FFF7FEFF 		bl	getDummyValue
 320              	.LVL37:
 321 0034 0146     		mov	r1, r0
 322 0036 2A19     		adds	r2, r5, r4
 323 0038 9300     		lsls	r3, r2, #2
 324 003a 1CAA     		add	r2, sp, #112
 325 003c 1344     		add	r3, r3, r2
 326 003e 43F8580C 		str	r0, [r3, #-88]	@ float
  54:main.c        ****             sendFormattedLineInt(sensors[i].name, sensors[i].value, sensors[i].unit);
 327              		.loc 1 54 0 discriminator 3
 328 0042 2544     		add	r5, r5, r4
 329 0044 AA00     		lsls	r2, r5, #2
 330 0046 1832     		adds	r2, r2, #24
 331 0048 01AB     		add	r3, sp, #4
 332 004a 1A44     		add	r2, r2, r3
 333 004c 3046     		mov	r0, r6
 334 004e FFF7FEFF 		bl	sendFormattedLineInt
 335              	.LVL38:
  52:main.c        ****             sensors[i].value = getDummyValue(sensors[i].name);
 336              		.loc 1 52 0 discriminator 3
 337 0052 0134     		adds	r4, r4, #1
 338              	.LVL39:
 339              	.L17:
  52:main.c        ****             sensors[i].value = getDummyValue(sensors[i].name);
 340              		.loc 1 52 0 is_stmt 0 discriminator 1
 341 0054 022C     		cmp	r4, #2
 342 0056 E5DD     		ble	.L18
 343              	.LBE2:
ARM GAS  C:\Users\karthik\AppData\Local\Temp\ccE3npYv.s 			page 8


  55:main.c        ****         }
  56:main.c        ****         UART_PutString("---------------------------\r\n\r\n");
 344              		.loc 1 56 0 is_stmt 1
 345 0058 0548     		ldr	r0, .L21+8
 346 005a FFF7FEFF 		bl	UART_PutString
 347              	.LVL40:
  57:main.c        ****         CyDelay(1000);
 348              		.loc 1 57 0
 349 005e 4FF47A70 		mov	r0, #1000
 350 0062 FFF7FEFF 		bl	CyDelay
 351              	.LVL41:
  58:main.c        ****     }
 352              		.loc 1 58 0
 353 0066 DBE7     		b	.L19
 354              	.L22:
 355              		.align	2
 356              	.L21:
 357 0068 00000000 		.word	.LANCHOR1
 358 006c 34000000 		.word	.LC5
 359 0070 5C000000 		.word	.LC6
 360              		.cfi_endproc
 361              	.LFE67:
 362              		.size	main, .-main
 363              		.comm	bit,2,2
 364              		.global	lfsr
 365              		.section	.rodata
 366              		.align	2
 367              		.set	.LANCHOR1,. + 0
 368              	.LC0:
 369 0000 54656D70 		.ascii	"Temperature\000"
 369      65726174 
 369      75726500 
 370 000c 00000000 		.space	8
 370      00000000 
 371 0014 00000000 		.word	0
 372 0018 4300     		.ascii	"C\000"
 373 001a 00000000 		.space	8
 373      00000000 
 374 0022 0000     		.space	2
 375 0024 50726573 		.ascii	"Pressure\000"
 375      73757265 
 375      00
 376 002d 00000000 		.space	11
 376      00000000 
 376      000000
 377 0038 00000000 		.word	0
 378 003c 6B506100 		.ascii	"kPa\000"
 379 0040 00000000 		.space	6
 379      0000
 380 0046 0000     		.space	2
 381 0048 48756D69 		.ascii	"Humidity\000"
 381      64697479 
 381      00
 382 0051 00000000 		.space	11
 382      00000000 
 382      000000
 383 005c 00000000 		.word	0
ARM GAS  C:\Users\karthik\AppData\Local\Temp\ccE3npYv.s 			page 9


 384 0060 2500     		.ascii	"%\000"
 385 0062 00000000 		.space	8
 385      00000000 
 386 006a 0000     		.space	2
 387              		.data
 388              		.align	1
 389              		.set	.LANCHOR0,. + 0
 390              		.type	lfsr, %object
 391              		.size	lfsr, 2
 392              	lfsr:
 393 0000 E1AC     		.short	-21279
 394              		.section	.rodata.str1.4,"aMS",%progbits,1
 395              		.align	2
 396              	.LC1:
 397 0000 54656D70 		.ascii	"Temperature\000"
 397      65726174 
 397      75726500 
 398              	.LC2:
 399 000c 50726573 		.ascii	"Pressure\000"
 399      73757265 
 399      00
 400 0015 000000   		.space	3
 401              	.LC3:
 402 0018 48756D69 		.ascii	"Humidity\000"
 402      64697479 
 402      00
 403 0021 000000   		.space	3
 404              	.LC4:
 405 0024 25733A20 		.ascii	"%s: %d.%d %s\015\012\000"
 405      25642E25 
 405      64202573 
 405      0D0A00
 406 0033 00       		.space	1
 407              	.LC5:
 408 0034 3D3D3D20 		.ascii	"=== Virtual Sensor Dashboard ===\015\012\015\012\000"
 408      56697274 
 408      75616C20 
 408      53656E73 
 408      6F722044 
 409 0059 000000   		.space	3
 410              	.LC6:
 411 005c 2D2D2D2D 		.ascii	"---------------------------\015\012\015\012\000"
 411      2D2D2D2D 
 411      2D2D2D2D 
 411      2D2D2D2D 
 411      2D2D2D2D 
 412              		.text
 413              	.Letext0:
 414              		.file 2 "c:\\program files (x86)\\cypress\\psoc creator\\4.4\\psoc creator\\import\\gnu\\arm\\5.4.
 415              		.file 3 "c:\\program files (x86)\\cypress\\psoc creator\\4.4\\psoc creator\\import\\gnu\\arm\\5.4.
 416              		.file 4 "Generated_Source\\PSoC5/core_cm3.h"
 417              		.file 5 "c:\\program files (x86)\\cypress\\psoc creator\\4.4\\psoc creator\\import\\gnu\\arm\\5.4.
 418              		.file 6 "c:\\program files (x86)\\cypress\\psoc creator\\4.4\\psoc creator\\import\\gnu\\arm\\5.4.
 419              		.file 7 "Generated_Source\\PSoC5/UART.h"
 420              		.file 8 "Generated_Source\\PSoC5/CyLib.h"